
code.exe:     file format pei-i386


Disassembly of section .text:

00401000 <__gnu_exception_handler@4>:
  401000:	53                   	push   %ebx
  401001:	83 ec 18             	sub    $0x18,%esp
  401004:	8b 44 24 20          	mov    0x20(%esp),%eax
  401008:	8b 00                	mov    (%eax),%eax
  40100a:	8b 00                	mov    (%eax),%eax
  40100c:	3d 91 00 00 c0       	cmp    $0xc0000091,%eax
  401011:	77 4d                	ja     401060 <__gnu_exception_handler@4+0x60>
  401013:	3d 8d 00 00 c0       	cmp    $0xc000008d,%eax
  401018:	73 5b                	jae    401075 <__gnu_exception_handler@4+0x75>
  40101a:	3d 05 00 00 c0       	cmp    $0xc0000005,%eax
  40101f:	0f 85 8e 00 00 00    	jne    4010b3 <__gnu_exception_handler@4+0xb3>
  401025:	c7 44 24 04 00 00 00 	movl   $0x0,0x4(%esp)
  40102c:	00 
  40102d:	c7 04 24 0b 00 00 00 	movl   $0xb,(%esp)
  401034:	e8 d7 6e 00 00       	call   407f10 <_signal>
  401039:	83 f8 01             	cmp    $0x1,%eax
  40103c:	0f 84 c1 00 00 00    	je     401103 <__gnu_exception_handler@4+0x103>
  401042:	85 c0                	test   %eax,%eax
  401044:	0f 85 a6 00 00 00    	jne    4010f0 <__gnu_exception_handler@4+0xf0>
  40104a:	8d b6 00 00 00 00    	lea    0x0(%esi),%esi
  401050:	31 c0                	xor    %eax,%eax
  401052:	83 c4 18             	add    $0x18,%esp
  401055:	5b                   	pop    %ebx
  401056:	c2 04 00             	ret    $0x4
  401059:	8d b4 26 00 00 00 00 	lea    0x0(%esi,%eiz,1),%esi
  401060:	3d 94 00 00 c0       	cmp    $0xc0000094,%eax
  401065:	74 19                	je     401080 <__gnu_exception_handler@4+0x80>
  401067:	3d 96 00 00 c0       	cmp    $0xc0000096,%eax
  40106c:	74 4c                	je     4010ba <__gnu_exception_handler@4+0xba>
  40106e:	3d 93 00 00 c0       	cmp    $0xc0000093,%eax
  401073:	75 db                	jne    401050 <__gnu_exception_handler@4+0x50>
  401075:	bb 01 00 00 00       	mov    $0x1,%ebx
  40107a:	eb 06                	jmp    401082 <__gnu_exception_handler@4+0x82>
  40107c:	8d 74 26 00          	lea    0x0(%esi,%eiz,1),%esi
  401080:	31 db                	xor    %ebx,%ebx
  401082:	c7 44 24 04 00 00 00 	movl   $0x0,0x4(%esp)
  401089:	00 
  40108a:	c7 04 24 08 00 00 00 	movl   $0x8,(%esp)
  401091:	e8 7a 6e 00 00       	call   407f10 <_signal>
  401096:	83 f8 01             	cmp    $0x1,%eax
  401099:	0f 84 a1 00 00 00    	je     401140 <__gnu_exception_handler@4+0x140>
  40109f:	85 c0                	test   %eax,%eax
  4010a1:	74 ad                	je     401050 <__gnu_exception_handler@4+0x50>
  4010a3:	c7 04 24 08 00 00 00 	movl   $0x8,(%esp)
  4010aa:	ff d0                	call   *%eax
  4010ac:	b8 ff ff ff ff       	mov    $0xffffffff,%eax
  4010b1:	eb 9f                	jmp    401052 <__gnu_exception_handler@4+0x52>
  4010b3:	3d 1d 00 00 c0       	cmp    $0xc000001d,%eax
  4010b8:	75 96                	jne    401050 <__gnu_exception_handler@4+0x50>
  4010ba:	c7 44 24 04 00 00 00 	movl   $0x0,0x4(%esp)
  4010c1:	00 
  4010c2:	c7 04 24 04 00 00 00 	movl   $0x4,(%esp)
  4010c9:	e8 42 6e 00 00       	call   407f10 <_signal>
  4010ce:	83 f8 01             	cmp    $0x1,%eax
  4010d1:	74 4c                	je     40111f <__gnu_exception_handler@4+0x11f>
  4010d3:	85 c0                	test   %eax,%eax
  4010d5:	0f 84 75 ff ff ff    	je     401050 <__gnu_exception_handler@4+0x50>
  4010db:	c7 04 24 04 00 00 00 	movl   $0x4,(%esp)
  4010e2:	ff d0                	call   *%eax
  4010e4:	b8 ff ff ff ff       	mov    $0xffffffff,%eax
  4010e9:	e9 64 ff ff ff       	jmp    401052 <__gnu_exception_handler@4+0x52>
  4010ee:	66 90                	xchg   %ax,%ax
  4010f0:	c7 04 24 0b 00 00 00 	movl   $0xb,(%esp)
  4010f7:	ff d0                	call   *%eax
  4010f9:	b8 ff ff ff ff       	mov    $0xffffffff,%eax
  4010fe:	e9 4f ff ff ff       	jmp    401052 <__gnu_exception_handler@4+0x52>
  401103:	c7 44 24 04 01 00 00 	movl   $0x1,0x4(%esp)
  40110a:	00 
  40110b:	c7 04 24 0b 00 00 00 	movl   $0xb,(%esp)
  401112:	e8 f9 6d 00 00       	call   407f10 <_signal>
  401117:	83 c8 ff             	or     $0xffffffff,%eax
  40111a:	e9 33 ff ff ff       	jmp    401052 <__gnu_exception_handler@4+0x52>
  40111f:	c7 44 24 04 01 00 00 	movl   $0x1,0x4(%esp)
  401126:	00 
  401127:	c7 04 24 04 00 00 00 	movl   $0x4,(%esp)
  40112e:	e8 dd 6d 00 00       	call   407f10 <_signal>
  401133:	83 c8 ff             	or     $0xffffffff,%eax
  401136:	e9 17 ff ff ff       	jmp    401052 <__gnu_exception_handler@4+0x52>
  40113b:	90                   	nop
  40113c:	8d 74 26 00          	lea    0x0(%esi,%eiz,1),%esi
  401140:	c7 44 24 04 01 00 00 	movl   $0x1,0x4(%esp)
  401147:	00 
  401148:	c7 04 24 08 00 00 00 	movl   $0x8,(%esp)
  40114f:	e8 bc 6d 00 00       	call   407f10 <_signal>
  401154:	85 db                	test   %ebx,%ebx
  401156:	b8 ff ff ff ff       	mov    $0xffffffff,%eax
  40115b:	0f 84 f1 fe ff ff    	je     401052 <__gnu_exception_handler@4+0x52>
  401161:	89 44 24 0c          	mov    %eax,0xc(%esp)
  401165:	e8 a6 03 00 00       	call   401510 <__fpreset>
  40116a:	8b 44 24 0c          	mov    0xc(%esp),%eax
  40116e:	e9 df fe ff ff       	jmp    401052 <__gnu_exception_handler@4+0x52>
  401173:	8d b6 00 00 00 00    	lea    0x0(%esi),%esi
  401179:	8d bc 27 00 00 00 00 	lea    0x0(%edi,%eiz,1),%edi

00401180 <___mingw_CRTStartup>:
  401180:	55                   	push   %ebp
  401181:	89 e5                	mov    %esp,%ebp
  401183:	53                   	push   %ebx
  401184:	83 ec 14             	sub    $0x14,%esp
  401187:	a1 64 a0 40 00       	mov    0x40a064,%eax
  40118c:	85 c0                	test   %eax,%eax
  40118e:	74 1c                	je     4011ac <___mingw_CRTStartup+0x2c>
  401190:	c7 44 24 08 00 00 00 	movl   $0x0,0x8(%esp)
  401197:	00 
  401198:	c7 44 24 04 02 00 00 	movl   $0x2,0x4(%esp)
  40119f:	00 
  4011a0:	c7 04 24 00 00 00 00 	movl   $0x0,(%esp)
  4011a7:	ff d0                	call   *%eax
  4011a9:	83 ec 0c             	sub    $0xc,%esp
  4011ac:	c7 04 24 00 10 40 00 	movl   $0x401000,(%esp)
  4011b3:	e8 40 6e 00 00       	call   407ff8 <_SetUnhandledExceptionFilter@4>
  4011b8:	83 ec 04             	sub    $0x4,%esp
  4011bb:	e8 60 03 00 00       	call   401520 <___cpu_features_init>
  4011c0:	e8 4b 03 00 00       	call   401510 <__fpreset>
  4011c5:	e8 36 04 00 00       	call   401600 <__setargv>
  4011ca:	a1 30 d0 40 00       	mov    0x40d030,%eax
  4011cf:	85 c0                	test   %eax,%eax
  4011d1:	74 42                	je     401215 <___mingw_CRTStartup+0x95>
  4011d3:	8b 1d c4 e1 40 00    	mov    0x40e1c4,%ebx
  4011d9:	a3 00 90 40 00       	mov    %eax,0x409000
  4011de:	89 44 24 04          	mov    %eax,0x4(%esp)
  4011e2:	8b 43 10             	mov    0x10(%ebx),%eax
  4011e5:	89 04 24             	mov    %eax,(%esp)
  4011e8:	e8 2b 6d 00 00       	call   407f18 <__setmode>
  4011ed:	a1 30 d0 40 00       	mov    0x40d030,%eax
  4011f2:	89 44 24 04          	mov    %eax,0x4(%esp)
  4011f6:	8b 43 30             	mov    0x30(%ebx),%eax
  4011f9:	89 04 24             	mov    %eax,(%esp)
  4011fc:	e8 17 6d 00 00       	call   407f18 <__setmode>
  401201:	a1 30 d0 40 00       	mov    0x40d030,%eax
  401206:	89 44 24 04          	mov    %eax,0x4(%esp)
  40120a:	8b 43 50             	mov    0x50(%ebx),%eax
  40120d:	89 04 24             	mov    %eax,(%esp)
  401210:	e8 03 6d 00 00       	call   407f18 <__setmode>
  401215:	e8 06 6d 00 00       	call   407f20 <___p__fmode>
  40121a:	8b 15 00 90 40 00    	mov    0x409000,%edx
  401220:	89 10                	mov    %edx,(%eax)
  401222:	e8 29 08 00 00       	call   401a50 <__pei386_runtime_relocator>
  401227:	83 e4 f0             	and    $0xfffffff0,%esp
  40122a:	e8 81 0a 00 00       	call   401cb0 <___main>
  40122f:	e8 f4 6c 00 00       	call   407f28 <___p__environ>
  401234:	8b 00                	mov    (%eax),%eax
  401236:	89 44 24 08          	mov    %eax,0x8(%esp)
  40123a:	a1 00 d0 40 00       	mov    0x40d000,%eax
  40123f:	89 44 24 04          	mov    %eax,0x4(%esp)
  401243:	a1 04 d0 40 00       	mov    0x40d004,%eax
  401248:	89 04 24             	mov    %eax,(%esp)
  40124b:	e8 90 01 00 00       	call   4013e0 <_main>
  401250:	89 c3                	mov    %eax,%ebx
  401252:	e8 d9 6c 00 00       	call   407f30 <__cexit>
  401257:	89 1c 24             	mov    %ebx,(%esp)
  40125a:	e8 a1 6d 00 00       	call   408000 <_ExitProcess@4>
  40125f:	90                   	nop

00401260 <__mingw32_init_mainargs>:
  401260:	83 ec 3c             	sub    $0x3c,%esp
  401263:	8d 44 24 2c          	lea    0x2c(%esp),%eax
  401267:	89 44 24 10          	mov    %eax,0x10(%esp)
  40126b:	a1 04 90 40 00       	mov    0x409004,%eax
  401270:	c7 44 24 04 00 d0 40 	movl   $0x40d000,0x4(%esp)
  401277:	00 
  401278:	c7 04 24 04 d0 40 00 	movl   $0x40d004,(%esp)
  40127f:	c7 44 24 2c 00 00 00 	movl   $0x0,0x2c(%esp)
  401286:	00 
  401287:	83 e0 01             	and    $0x1,%eax
  40128a:	89 44 24 0c          	mov    %eax,0xc(%esp)
  40128e:	8d 44 24 28          	lea    0x28(%esp),%eax
  401292:	89 44 24 08          	mov    %eax,0x8(%esp)
  401296:	e8 9d 6c 00 00       	call   407f38 <___getmainargs>
  40129b:	83 c4 3c             	add    $0x3c,%esp
  40129e:	c3                   	ret    
  40129f:	90                   	nop

004012a0 <_mainCRTStartup>:
  4012a0:	83 ec 1c             	sub    $0x1c,%esp
  4012a3:	c7 04 24 01 00 00 00 	movl   $0x1,(%esp)
  4012aa:	ff 15 b4 e1 40 00    	call   *0x40e1b4
  4012b0:	e8 cb fe ff ff       	call   401180 <___mingw_CRTStartup>
  4012b5:	8d 74 26 00          	lea    0x0(%esi,%eiz,1),%esi
  4012b9:	8d bc 27 00 00 00 00 	lea    0x0(%edi,%eiz,1),%edi

004012c0 <_WinMainCRTStartup>:
  4012c0:	83 ec 1c             	sub    $0x1c,%esp
  4012c3:	c7 04 24 02 00 00 00 	movl   $0x2,(%esp)
  4012ca:	ff 15 b4 e1 40 00    	call   *0x40e1b4
  4012d0:	e8 ab fe ff ff       	call   401180 <___mingw_CRTStartup>
  4012d5:	8d 74 26 00          	lea    0x0(%esi,%eiz,1),%esi
  4012d9:	8d bc 27 00 00 00 00 	lea    0x0(%edi,%eiz,1),%edi

004012e0 <_atexit>:
  4012e0:	a1 d4 e1 40 00       	mov    0x40e1d4,%eax
  4012e5:	ff e0                	jmp    *%eax
  4012e7:	89 f6                	mov    %esi,%esi
  4012e9:	8d bc 27 00 00 00 00 	lea    0x0(%edi,%eiz,1),%edi

004012f0 <__onexit>:
  4012f0:	a1 c8 e1 40 00       	mov    0x40e1c8,%eax
  4012f5:	ff e0                	jmp    *%eax
  4012f7:	90                   	nop
  4012f8:	90                   	nop
  4012f9:	90                   	nop
  4012fa:	90                   	nop
  4012fb:	90                   	nop
  4012fc:	90                   	nop
  4012fd:	90                   	nop
  4012fe:	90                   	nop
  4012ff:	90                   	nop

00401300 <___gcc_register_frame>:
  401300:	55                   	push   %ebp
  401301:	89 e5                	mov    %esp,%ebp
  401303:	83 ec 18             	sub    $0x18,%esp
  401306:	c7 04 24 00 a0 40 00 	movl   $0x40a000,(%esp)
  40130d:	e8 f6 6c 00 00       	call   408008 <_GetModuleHandleA@4>
  401312:	ba 00 00 00 00       	mov    $0x0,%edx
  401317:	83 ec 04             	sub    $0x4,%esp
  40131a:	85 c0                	test   %eax,%eax
  40131c:	74 15                	je     401333 <___gcc_register_frame+0x33>
  40131e:	c7 44 24 04 13 a0 40 	movl   $0x40a013,0x4(%esp)
  401325:	00 
  401326:	89 04 24             	mov    %eax,(%esp)
  401329:	e8 e2 6c 00 00       	call   408010 <_GetProcAddress@8>
  40132e:	83 ec 08             	sub    $0x8,%esp
  401331:	89 c2                	mov    %eax,%edx
  401333:	85 d2                	test   %edx,%edx
  401335:	74 11                	je     401348 <___gcc_register_frame+0x48>
  401337:	c7 44 24 04 08 d0 40 	movl   $0x40d008,0x4(%esp)
  40133e:	00 
  40133f:	c7 04 24 c0 b0 40 00 	movl   $0x40b0c0,(%esp)
  401346:	ff d2                	call   *%edx
  401348:	a1 24 90 40 00       	mov    0x409024,%eax
  40134d:	85 c0                	test   %eax,%eax
  40134f:	74 3a                	je     40138b <___gcc_register_frame+0x8b>
  401351:	c7 04 24 29 a0 40 00 	movl   $0x40a029,(%esp)
  401358:	e8 ab 6c 00 00       	call   408008 <_GetModuleHandleA@4>
  40135d:	ba 00 00 00 00       	mov    $0x0,%edx
  401362:	83 ec 04             	sub    $0x4,%esp
  401365:	85 c0                	test   %eax,%eax
  401367:	74 15                	je     40137e <___gcc_register_frame+0x7e>
  401369:	c7 44 24 04 37 a0 40 	movl   $0x40a037,0x4(%esp)
  401370:	00 
  401371:	89 04 24             	mov    %eax,(%esp)
  401374:	e8 97 6c 00 00       	call   408010 <_GetProcAddress@8>
  401379:	83 ec 08             	sub    $0x8,%esp
  40137c:	89 c2                	mov    %eax,%edx
  40137e:	85 d2                	test   %edx,%edx
  401380:	74 09                	je     40138b <___gcc_register_frame+0x8b>
  401382:	c7 04 24 24 90 40 00 	movl   $0x409024,(%esp)
  401389:	ff d2                	call   *%edx
  40138b:	c9                   	leave  
  40138c:	c3                   	ret    
  40138d:	8d 76 00             	lea    0x0(%esi),%esi

00401390 <___gcc_deregister_frame>:
  401390:	55                   	push   %ebp
  401391:	89 e5                	mov    %esp,%ebp
  401393:	83 ec 18             	sub    $0x18,%esp
  401396:	c7 04 24 00 a0 40 00 	movl   $0x40a000,(%esp)
  40139d:	e8 66 6c 00 00       	call   408008 <_GetModuleHandleA@4>
  4013a2:	ba 00 00 00 00       	mov    $0x0,%edx
  4013a7:	83 ec 04             	sub    $0x4,%esp
  4013aa:	85 c0                	test   %eax,%eax
  4013ac:	74 15                	je     4013c3 <___gcc_deregister_frame+0x33>
  4013ae:	c7 44 24 04 4b a0 40 	movl   $0x40a04b,0x4(%esp)
  4013b5:	00 
  4013b6:	89 04 24             	mov    %eax,(%esp)
  4013b9:	e8 52 6c 00 00       	call   408010 <_GetProcAddress@8>
  4013be:	83 ec 08             	sub    $0x8,%esp
  4013c1:	89 c2                	mov    %eax,%edx
  4013c3:	85 d2                	test   %edx,%edx
  4013c5:	74 09                	je     4013d0 <___gcc_deregister_frame+0x40>
  4013c7:	c7 04 24 c0 b0 40 00 	movl   $0x40b0c0,(%esp)
  4013ce:	ff d2                	call   *%edx
  4013d0:	c9                   	leave  
  4013d1:	c3                   	ret    
  4013d2:	90                   	nop
  4013d3:	90                   	nop
  4013d4:	90                   	nop
  4013d5:	90                   	nop
  4013d6:	90                   	nop
  4013d7:	90                   	nop
  4013d8:	90                   	nop
  4013d9:	90                   	nop
  4013da:	90                   	nop
  4013db:	90                   	nop
  4013dc:	90                   	nop
  4013dd:	90                   	nop
  4013de:	90                   	nop
  4013df:	90                   	nop

004013e0 <_main>:
  4013e0:	55                   	push   %ebp
  4013e1:	89 e5                	mov    %esp,%ebp
  4013e3:	83 e4 f0             	and    $0xfffffff0,%esp
  4013e6:	83 ec 10             	sub    $0x10,%esp
  4013e9:	e8 c2 08 00 00       	call   401cb0 <___main>
  4013ee:	c7 44 24 0c 00 00 00 	movl   $0x0,0xc(%esp)
  4013f5:	00 
  4013f6:	c7 44 24 08 00 00 00 	movl   $0x0,0x8(%esp)
  4013fd:	00 
  4013fe:	eb 0d                	jmp    40140d <_main+0x2d>
  401400:	8b 44 24 0c          	mov    0xc(%esp),%eax
  401404:	01 44 24 08          	add    %eax,0x8(%esp)
  401408:	83 44 24 0c 01       	addl   $0x1,0xc(%esp)
  40140d:	81 7c 24 0c f3 01 00 	cmpl   $0x1f3,0xc(%esp)
  401414:	00 
  401415:	7e e9                	jle    401400 <_main+0x20>
  401417:	8b 44 24 08          	mov    0x8(%esp),%eax
  40141b:	c9                   	leave  
  40141c:	c3                   	ret    
  40141d:	90                   	nop
  40141e:	90                   	nop
  40141f:	90                   	nop

00401420 <___dyn_tls_dtor@12>:
  401420:	83 ec 1c             	sub    $0x1c,%esp
  401423:	8b 44 24 24          	mov    0x24(%esp),%eax
  401427:	85 c0                	test   %eax,%eax
  401429:	74 15                	je     401440 <___dyn_tls_dtor@12+0x20>
  40142b:	83 f8 03             	cmp    $0x3,%eax
  40142e:	74 10                	je     401440 <___dyn_tls_dtor@12+0x20>
  401430:	b8 01 00 00 00       	mov    $0x1,%eax
  401435:	83 c4 1c             	add    $0x1c,%esp
  401438:	c2 0c 00             	ret    $0xc
  40143b:	90                   	nop
  40143c:	8d 74 26 00          	lea    0x0(%esi,%eiz,1),%esi
  401440:	8b 54 24 28          	mov    0x28(%esp),%edx
  401444:	89 44 24 04          	mov    %eax,0x4(%esp)
  401448:	8b 44 24 20          	mov    0x20(%esp),%eax
  40144c:	89 54 24 08          	mov    %edx,0x8(%esp)
  401450:	89 04 24             	mov    %eax,(%esp)
  401453:	e8 18 0a 00 00       	call   401e70 <___mingw_TLScallback>
  401458:	b8 01 00 00 00       	mov    $0x1,%eax
  40145d:	83 c4 1c             	add    $0x1c,%esp
  401460:	c2 0c 00             	ret    $0xc
  401463:	8d b6 00 00 00 00    	lea    0x0(%esi),%esi
  401469:	8d bc 27 00 00 00 00 	lea    0x0(%edi,%eiz,1),%edi

00401470 <___dyn_tls_init@12>:
  401470:	56                   	push   %esi
  401471:	53                   	push   %ebx
  401472:	83 ec 14             	sub    $0x14,%esp
  401475:	83 3d 40 d0 40 00 02 	cmpl   $0x2,0x40d040
  40147c:	8b 44 24 24          	mov    0x24(%esp),%eax
  401480:	74 0a                	je     40148c <___dyn_tls_init@12+0x1c>
  401482:	c7 05 40 d0 40 00 02 	movl   $0x2,0x40d040
  401489:	00 00 00 
  40148c:	83 f8 02             	cmp    $0x2,%eax
  40148f:	74 12                	je     4014a3 <___dyn_tls_init@12+0x33>
  401491:	83 f8 01             	cmp    $0x1,%eax
  401494:	74 42                	je     4014d8 <___dyn_tls_init@12+0x68>
  401496:	83 c4 14             	add    $0x14,%esp
  401499:	b8 01 00 00 00       	mov    $0x1,%eax
  40149e:	5b                   	pop    %ebx
  40149f:	5e                   	pop    %esi
  4014a0:	c2 0c 00             	ret    $0xc
  4014a3:	be 14 f0 40 00       	mov    $0x40f014,%esi
  4014a8:	81 ee 14 f0 40 00    	sub    $0x40f014,%esi
  4014ae:	c1 fe 02             	sar    $0x2,%esi
  4014b1:	85 f6                	test   %esi,%esi
  4014b3:	7e e1                	jle    401496 <___dyn_tls_init@12+0x26>
  4014b5:	31 db                	xor    %ebx,%ebx
  4014b7:	8b 04 9d 14 f0 40 00 	mov    0x40f014(,%ebx,4),%eax
  4014be:	85 c0                	test   %eax,%eax
  4014c0:	74 02                	je     4014c4 <___dyn_tls_init@12+0x54>
  4014c2:	ff d0                	call   *%eax
  4014c4:	83 c3 01             	add    $0x1,%ebx
  4014c7:	39 f3                	cmp    %esi,%ebx
  4014c9:	75 ec                	jne    4014b7 <___dyn_tls_init@12+0x47>
  4014cb:	83 c4 14             	add    $0x14,%esp
  4014ce:	b8 01 00 00 00       	mov    $0x1,%eax
  4014d3:	5b                   	pop    %ebx
  4014d4:	5e                   	pop    %esi
  4014d5:	c2 0c 00             	ret    $0xc
  4014d8:	8b 44 24 28          	mov    0x28(%esp),%eax
  4014dc:	c7 44 24 04 01 00 00 	movl   $0x1,0x4(%esp)
  4014e3:	00 
  4014e4:	89 44 24 08          	mov    %eax,0x8(%esp)
  4014e8:	8b 44 24 20          	mov    0x20(%esp),%eax
  4014ec:	89 04 24             	mov    %eax,(%esp)
  4014ef:	e8 7c 09 00 00       	call   401e70 <___mingw_TLScallback>
  4014f4:	eb a0                	jmp    401496 <___dyn_tls_init@12+0x26>
  4014f6:	8d 76 00             	lea    0x0(%esi),%esi
  4014f9:	8d bc 27 00 00 00 00 	lea    0x0(%edi,%eiz,1),%edi

00401500 <___tlregdtor>:
  401500:	31 c0                	xor    %eax,%eax
  401502:	c3                   	ret    
  401503:	90                   	nop
  401504:	90                   	nop
  401505:	90                   	nop
  401506:	90                   	nop
  401507:	90                   	nop
  401508:	90                   	nop
  401509:	90                   	nop
  40150a:	90                   	nop
  40150b:	90                   	nop
  40150c:	90                   	nop
  40150d:	90                   	nop
  40150e:	90                   	nop
  40150f:	90                   	nop

00401510 <__fpreset>:
  401510:	db e3                	fninit 
  401512:	c3                   	ret    
  401513:	90                   	nop
  401514:	90                   	nop
  401515:	90                   	nop
  401516:	90                   	nop
  401517:	90                   	nop
  401518:	90                   	nop
  401519:	90                   	nop
  40151a:	90                   	nop
  40151b:	90                   	nop
  40151c:	90                   	nop
  40151d:	90                   	nop
  40151e:	90                   	nop
  40151f:	90                   	nop

00401520 <___cpu_features_init>:
  401520:	9c                   	pushf  
  401521:	9c                   	pushf  
  401522:	58                   	pop    %eax
  401523:	89 c2                	mov    %eax,%edx
  401525:	35 00 00 20 00       	xor    $0x200000,%eax
  40152a:	50                   	push   %eax
  40152b:	9d                   	popf   
  40152c:	9c                   	pushf  
  40152d:	58                   	pop    %eax
  40152e:	9d                   	popf   
  40152f:	31 d0                	xor    %edx,%eax
  401531:	a9 00 00 20 00       	test   $0x200000,%eax
  401536:	0f 84 a5 00 00 00    	je     4015e1 <___cpu_features_init+0xc1>
  40153c:	53                   	push   %ebx
  40153d:	31 c0                	xor    %eax,%eax
  40153f:	0f a2                	cpuid  
  401541:	85 c0                	test   %eax,%eax
  401543:	0f 84 97 00 00 00    	je     4015e0 <___cpu_features_init+0xc0>
  401549:	b8 01 00 00 00       	mov    $0x1,%eax
  40154e:	0f a2                	cpuid  
  401550:	f6 c6 01             	test   $0x1,%dh
  401553:	74 07                	je     40155c <___cpu_features_init+0x3c>
  401555:	83 0d 34 d0 40 00 01 	orl    $0x1,0x40d034
  40155c:	f6 c6 80             	test   $0x80,%dh
  40155f:	74 07                	je     401568 <___cpu_features_init+0x48>
  401561:	83 0d 34 d0 40 00 02 	orl    $0x2,0x40d034
  401568:	f7 c2 00 00 80 00    	test   $0x800000,%edx
  40156e:	74 07                	je     401577 <___cpu_features_init+0x57>
  401570:	83 0d 34 d0 40 00 04 	orl    $0x4,0x40d034
  401577:	f7 c2 00 00 00 01    	test   $0x1000000,%edx
  40157d:	74 07                	je     401586 <___cpu_features_init+0x66>
  40157f:	83 0d 34 d0 40 00 08 	orl    $0x8,0x40d034
  401586:	f7 c2 00 00 00 02    	test   $0x2000000,%edx
  40158c:	74 07                	je     401595 <___cpu_features_init+0x75>
  40158e:	83 0d 34 d0 40 00 10 	orl    $0x10,0x40d034
  401595:	81 e2 00 00 00 04    	and    $0x4000000,%edx
  40159b:	74 07                	je     4015a4 <___cpu_features_init+0x84>
  40159d:	83 0d 34 d0 40 00 20 	orl    $0x20,0x40d034
  4015a4:	f6 c1 01             	test   $0x1,%cl
  4015a7:	74 07                	je     4015b0 <___cpu_features_init+0x90>
  4015a9:	83 0d 34 d0 40 00 40 	orl    $0x40,0x40d034
  4015b0:	80 e5 20             	and    $0x20,%ch
  4015b3:	75 2e                	jne    4015e3 <___cpu_features_init+0xc3>
  4015b5:	b8 00 00 00 80       	mov    $0x80000000,%eax
  4015ba:	0f a2                	cpuid  
  4015bc:	3d 00 00 00 80       	cmp    $0x80000000,%eax
  4015c1:	76 1d                	jbe    4015e0 <___cpu_features_init+0xc0>
  4015c3:	b8 01 00 00 80       	mov    $0x80000001,%eax
  4015c8:	0f a2                	cpuid  
  4015ca:	85 d2                	test   %edx,%edx
  4015cc:	78 22                	js     4015f0 <___cpu_features_init+0xd0>
  4015ce:	81 e2 00 00 00 40    	and    $0x40000000,%edx
  4015d4:	74 0a                	je     4015e0 <___cpu_features_init+0xc0>
  4015d6:	81 0d 34 d0 40 00 00 	orl    $0x200,0x40d034
  4015dd:	02 00 00 
  4015e0:	5b                   	pop    %ebx
  4015e1:	f3 c3                	repz ret 
  4015e3:	81 0d 34 d0 40 00 80 	orl    $0x80,0x40d034
  4015ea:	00 00 00 
  4015ed:	eb c6                	jmp    4015b5 <___cpu_features_init+0x95>
  4015ef:	90                   	nop
  4015f0:	81 0d 34 d0 40 00 00 	orl    $0x100,0x40d034
  4015f7:	01 00 00 
  4015fa:	eb d2                	jmp    4015ce <___cpu_features_init+0xae>
  4015fc:	90                   	nop
  4015fd:	90                   	nop
  4015fe:	90                   	nop
  4015ff:	90                   	nop

00401600 <__setargv>:
  401600:	55                   	push   %ebp
  401601:	89 e5                	mov    %esp,%ebp
  401603:	57                   	push   %edi
  401604:	56                   	push   %esi
  401605:	53                   	push   %ebx
  401606:	83 ec 4c             	sub    $0x4c,%esp
  401609:	f6 05 04 90 40 00 02 	testb  $0x2,0x409004
  401610:	0f 84 ba 02 00 00    	je     4018d0 <__setargv+0x2d0>
  401616:	e8 fd 69 00 00       	call   408018 <_GetCommandLineA@0>
  40161b:	89 65 c0             	mov    %esp,-0x40(%ebp)
  40161e:	89 04 24             	mov    %eax,(%esp)
  401621:	89 c6                	mov    %eax,%esi
  401623:	e8 18 69 00 00       	call   407f40 <_strlen>
  401628:	8d 44 00 11          	lea    0x11(%eax,%eax,1),%eax
  40162c:	83 e0 f0             	and    $0xfffffff0,%eax
  40162f:	e8 dc 08 00 00       	call   401f10 <___chkstk_ms>
  401634:	29 c4                	sub    %eax,%esp
  401636:	8d 44 24 10          	lea    0x10(%esp),%eax
  40163a:	89 c2                	mov    %eax,%edx
  40163c:	89 45 c4             	mov    %eax,-0x3c(%ebp)
  40163f:	a1 04 90 40 00       	mov    0x409004,%eax
  401644:	c7 45 e4 00 00 00 00 	movl   $0x0,-0x1c(%ebp)
  40164b:	c7 45 d0 00 00 00 00 	movl   $0x0,-0x30(%ebp)
  401652:	c7 45 cc 00 00 00 00 	movl   $0x0,-0x34(%ebp)
  401659:	83 e0 40             	and    $0x40,%eax
  40165c:	83 f8 01             	cmp    $0x1,%eax
  40165f:	19 c0                	sbb    %eax,%eax
  401661:	89 45 c8             	mov    %eax,-0x38(%ebp)
  401664:	31 c0                	xor    %eax,%eax
  401666:	81 65 c8 00 c0 ff ff 	andl   $0xffffc000,-0x38(%ebp)
  40166d:	81 45 c8 10 40 00 00 	addl   $0x4010,-0x38(%ebp)
  401674:	89 55 d4             	mov    %edx,-0x2c(%ebp)
  401677:	83 c6 01             	add    $0x1,%esi
  40167a:	0f b6 5e ff          	movzbl -0x1(%esi),%ebx
  40167e:	0f be cb             	movsbl %bl,%ecx
  401681:	85 c9                	test   %ecx,%ecx
  401683:	74 7b                	je     401700 <__setargv+0x100>
  401685:	80 fb 3f             	cmp    $0x3f,%bl
  401688:	0f 84 13 01 00 00    	je     4017a1 <__setargv+0x1a1>
  40168e:	0f 8f ec 00 00 00    	jg     401780 <__setargv+0x180>
  401694:	80 fb 27             	cmp    $0x27,%bl
  401697:	0f 84 e3 01 00 00    	je     401880 <__setargv+0x280>
  40169d:	80 fb 2a             	cmp    $0x2a,%bl
  4016a0:	0f 84 fb 00 00 00    	je     4017a1 <__setargv+0x1a1>
  4016a6:	80 fb 22             	cmp    $0x22,%bl
  4016a9:	0f 85 36 01 00 00    	jne    4017e5 <__setargv+0x1e5>
  4016af:	89 c3                	mov    %eax,%ebx
  4016b1:	d1 fb                	sar    %ebx
  4016b3:	0f 84 3e 02 00 00    	je     4018f7 <__setargv+0x2f7>
  4016b9:	8b 55 d4             	mov    -0x2c(%ebp),%edx
  4016bc:	01 d3                	add    %edx,%ebx
  4016be:	66 90                	xchg   %ax,%ax
  4016c0:	83 c2 01             	add    $0x1,%edx
  4016c3:	39 da                	cmp    %ebx,%edx
  4016c5:	c6 42 ff 5c          	movb   $0x5c,-0x1(%edx)
  4016c9:	75 f5                	jne    4016c0 <__setargv+0xc0>
  4016cb:	a8 01                	test   $0x1,%al
  4016cd:	0f 85 93 00 00 00    	jne    401766 <__setargv+0x166>
  4016d3:	83 7d d0 27          	cmpl   $0x27,-0x30(%ebp)
  4016d7:	0f 84 89 00 00 00    	je     401766 <__setargv+0x166>
  4016dd:	83 c6 01             	add    $0x1,%esi
  4016e0:	31 c0                	xor    %eax,%eax
  4016e2:	89 5d d4             	mov    %ebx,-0x2c(%ebp)
  4016e5:	0f b6 5e ff          	movzbl -0x1(%esi),%ebx
  4016e9:	31 4d d0             	xor    %ecx,-0x30(%ebp)
  4016ec:	c7 45 cc 01 00 00 00 	movl   $0x1,-0x34(%ebp)
  4016f3:	0f be cb             	movsbl %bl,%ecx
  4016f6:	85 c9                	test   %ecx,%ecx
  4016f8:	75 8b                	jne    401685 <__setargv+0x85>
  4016fa:	8d b6 00 00 00 00    	lea    0x0(%esi),%esi
  401700:	85 c0                	test   %eax,%eax
  401702:	8b 55 d4             	mov    -0x2c(%ebp),%edx
  401705:	0f 84 f4 01 00 00    	je     4018ff <__setargv+0x2ff>
  40170b:	01 d0                	add    %edx,%eax
  40170d:	8d 76 00             	lea    0x0(%esi),%esi
  401710:	83 c2 01             	add    $0x1,%edx
  401713:	39 c2                	cmp    %eax,%edx
  401715:	c6 42 ff 5c          	movb   $0x5c,-0x1(%edx)
  401719:	75 f5                	jne    401710 <__setargv+0x110>
  40171b:	8b 55 cc             	mov    -0x34(%ebp),%edx
  40171e:	85 d2                	test   %edx,%edx
  401720:	75 05                	jne    401727 <__setargv+0x127>
  401722:	39 45 c4             	cmp    %eax,-0x3c(%ebp)
  401725:	73 24                	jae    40174b <__setargv+0x14b>
  401727:	c6 00 00             	movb   $0x0,(%eax)
  40172a:	8d 45 d8             	lea    -0x28(%ebp),%eax
  40172d:	89 44 24 0c          	mov    %eax,0xc(%esp)
  401731:	c7 44 24 08 00 00 00 	movl   $0x0,0x8(%esp)
  401738:	00 
  401739:	8b 45 c8             	mov    -0x38(%ebp),%eax
  40173c:	89 44 24 04          	mov    %eax,0x4(%esp)
  401740:	8b 45 c4             	mov    -0x3c(%ebp),%eax
  401743:	89 04 24             	mov    %eax,(%esp)
  401746:	e8 f5 13 00 00       	call   402b40 <___mingw_glob>
  40174b:	8b 45 dc             	mov    -0x24(%ebp),%eax
  40174e:	a3 04 d0 40 00       	mov    %eax,0x40d004
  401753:	8b 45 e0             	mov    -0x20(%ebp),%eax
  401756:	a3 00 d0 40 00       	mov    %eax,0x40d000
  40175b:	8b 65 c0             	mov    -0x40(%ebp),%esp
  40175e:	8d 65 f4             	lea    -0xc(%ebp),%esp
  401761:	5b                   	pop    %ebx
  401762:	5e                   	pop    %esi
  401763:	5f                   	pop    %edi
  401764:	5d                   	pop    %ebp
  401765:	c3                   	ret    
  401766:	8d 43 01             	lea    0x1(%ebx),%eax
  401769:	89 45 d4             	mov    %eax,-0x2c(%ebp)
  40176c:	31 c0                	xor    %eax,%eax
  40176e:	c6 03 22             	movb   $0x22,(%ebx)
  401771:	c7 45 cc 01 00 00 00 	movl   $0x1,-0x34(%ebp)
  401778:	e9 fa fe ff ff       	jmp    401677 <__setargv+0x77>
  40177d:	8d 76 00             	lea    0x0(%esi),%esi
  401780:	80 fb 5c             	cmp    $0x5c,%bl
  401783:	0f 84 3f 01 00 00    	je     4018c8 <__setargv+0x2c8>
  401789:	80 fb 7f             	cmp    $0x7f,%bl
  40178c:	74 13                	je     4017a1 <__setargv+0x1a1>
  40178e:	80 fb 5b             	cmp    $0x5b,%bl
  401791:	75 52                	jne    4017e5 <__setargv+0x1e5>
  401793:	f6 05 04 90 40 00 20 	testb  $0x20,0x409004
  40179a:	bf 01 00 00 00       	mov    $0x1,%edi
  40179f:	74 0a                	je     4017ab <__setargv+0x1ab>
  4017a1:	8b 55 d0             	mov    -0x30(%ebp),%edx
  4017a4:	85 d2                	test   %edx,%edx
  4017a6:	0f 95 c2             	setne  %dl
  4017a9:	89 d7                	mov    %edx,%edi
  4017ab:	85 c0                	test   %eax,%eax
  4017ad:	0f 84 34 01 00 00    	je     4018e7 <__setargv+0x2e7>
  4017b3:	8b 55 d4             	mov    -0x2c(%ebp),%edx
  4017b6:	01 d0                	add    %edx,%eax
  4017b8:	83 c2 01             	add    $0x1,%edx
  4017bb:	39 c2                	cmp    %eax,%edx
  4017bd:	c6 42 ff 5c          	movb   $0x5c,-0x1(%edx)
  4017c1:	75 f5                	jne    4017b8 <__setargv+0x1b8>
  4017c3:	89 fa                	mov    %edi,%edx
  4017c5:	84 d2                	test   %dl,%dl
  4017c7:	0f 85 a3 00 00 00    	jne    401870 <__setargv+0x270>
  4017cd:	83 f9 7f             	cmp    $0x7f,%ecx
  4017d0:	0f 84 9a 00 00 00    	je     401870 <__setargv+0x270>
  4017d6:	8d 48 01             	lea    0x1(%eax),%ecx
  4017d9:	88 18                	mov    %bl,(%eax)
  4017db:	31 c0                	xor    %eax,%eax
  4017dd:	89 4d d4             	mov    %ecx,-0x2c(%ebp)
  4017e0:	e9 92 fe ff ff       	jmp    401677 <__setargv+0x77>
  4017e5:	8b 7d d4             	mov    -0x2c(%ebp),%edi
  4017e8:	8b 55 d4             	mov    -0x2c(%ebp),%edx
  4017eb:	01 c7                	add    %eax,%edi
  4017ed:	85 c0                	test   %eax,%eax
  4017ef:	0f 84 fa 00 00 00    	je     4018ef <__setargv+0x2ef>
  4017f5:	83 c2 01             	add    $0x1,%edx
  4017f8:	39 fa                	cmp    %edi,%edx
  4017fa:	c6 42 ff 5c          	movb   $0x5c,-0x1(%edx)
  4017fe:	75 f5                	jne    4017f5 <__setargv+0x1f5>
  401800:	8b 45 d0             	mov    -0x30(%ebp),%eax
  401803:	85 c0                	test   %eax,%eax
  401805:	75 59                	jne    401860 <__setargv+0x260>
  401807:	89 0c 24             	mov    %ecx,(%esp)
  40180a:	e8 39 67 00 00       	call   407f48 <_isspace>
  40180f:	85 c0                	test   %eax,%eax
  401811:	74 4d                	je     401860 <__setargv+0x260>
  401813:	8b 4d cc             	mov    -0x34(%ebp),%ecx
  401816:	85 c9                	test   %ecx,%ecx
  401818:	75 09                	jne    401823 <__setargv+0x223>
  40181a:	39 7d c4             	cmp    %edi,-0x3c(%ebp)
  40181d:	0f 83 ba 00 00 00    	jae    4018dd <__setargv+0x2dd>
  401823:	8d 45 d8             	lea    -0x28(%ebp),%eax
  401826:	c6 07 00             	movb   $0x0,(%edi)
  401829:	89 44 24 0c          	mov    %eax,0xc(%esp)
  40182d:	c7 44 24 08 00 00 00 	movl   $0x0,0x8(%esp)
  401834:	00 
  401835:	8b 45 c8             	mov    -0x38(%ebp),%eax
  401838:	89 44 24 04          	mov    %eax,0x4(%esp)
  40183c:	8b 7d c4             	mov    -0x3c(%ebp),%edi
  40183f:	89 3c 24             	mov    %edi,(%esp)
  401842:	e8 f9 12 00 00       	call   402b40 <___mingw_glob>
  401847:	31 c0                	xor    %eax,%eax
  401849:	83 4d c8 01          	orl    $0x1,-0x38(%ebp)
  40184d:	89 7d d4             	mov    %edi,-0x2c(%ebp)
  401850:	c7 45 cc 00 00 00 00 	movl   $0x0,-0x34(%ebp)
  401857:	e9 1b fe ff ff       	jmp    401677 <__setargv+0x77>
  40185c:	8d 74 26 00          	lea    0x0(%esi,%eiz,1),%esi
  401860:	8d 47 01             	lea    0x1(%edi),%eax
  401863:	89 45 d4             	mov    %eax,-0x2c(%ebp)
  401866:	31 c0                	xor    %eax,%eax
  401868:	88 1f                	mov    %bl,(%edi)
  40186a:	e9 08 fe ff ff       	jmp    401677 <__setargv+0x77>
  40186f:	90                   	nop
  401870:	c6 00 7f             	movb   $0x7f,(%eax)
  401873:	83 c0 01             	add    $0x1,%eax
  401876:	e9 5b ff ff ff       	jmp    4017d6 <__setargv+0x1d6>
  40187b:	90                   	nop
  40187c:	8d 74 26 00          	lea    0x0(%esi,%eiz,1),%esi
  401880:	f6 05 04 90 40 00 10 	testb  $0x10,0x409004
  401887:	0f 84 58 ff ff ff    	je     4017e5 <__setargv+0x1e5>
  40188d:	89 c3                	mov    %eax,%ebx
  40188f:	d1 fb                	sar    %ebx
  401891:	74 73                	je     401906 <__setargv+0x306>
  401893:	8b 55 d4             	mov    -0x2c(%ebp),%edx
  401896:	01 d3                	add    %edx,%ebx
  401898:	83 c2 01             	add    $0x1,%edx
  40189b:	39 da                	cmp    %ebx,%edx
  40189d:	c6 42 ff 5c          	movb   $0x5c,-0x1(%edx)
  4018a1:	75 f5                	jne    401898 <__setargv+0x298>
  4018a3:	a8 01                	test   $0x1,%al
  4018a5:	75 0a                	jne    4018b1 <__setargv+0x2b1>
  4018a7:	83 7d d0 22          	cmpl   $0x22,-0x30(%ebp)
  4018ab:	0f 85 2c fe ff ff    	jne    4016dd <__setargv+0xdd>
  4018b1:	8d 43 01             	lea    0x1(%ebx),%eax
  4018b4:	89 45 d4             	mov    %eax,-0x2c(%ebp)
  4018b7:	31 c0                	xor    %eax,%eax
  4018b9:	c6 03 27             	movb   $0x27,(%ebx)
  4018bc:	c7 45 cc 01 00 00 00 	movl   $0x1,-0x34(%ebp)
  4018c3:	e9 af fd ff ff       	jmp    401677 <__setargv+0x77>
  4018c8:	83 c0 01             	add    $0x1,%eax
  4018cb:	e9 a7 fd ff ff       	jmp    401677 <__setargv+0x77>
  4018d0:	e8 8b f9 ff ff       	call   401260 <__mingw32_init_mainargs>
  4018d5:	8d 65 f4             	lea    -0xc(%ebp),%esp
  4018d8:	5b                   	pop    %ebx
  4018d9:	5e                   	pop    %esi
  4018da:	5f                   	pop    %edi
  4018db:	5d                   	pop    %ebp
  4018dc:	c3                   	ret    
  4018dd:	89 7d d4             	mov    %edi,-0x2c(%ebp)
  4018e0:	31 c0                	xor    %eax,%eax
  4018e2:	e9 90 fd ff ff       	jmp    401677 <__setargv+0x77>
  4018e7:	8b 45 d4             	mov    -0x2c(%ebp),%eax
  4018ea:	e9 d4 fe ff ff       	jmp    4017c3 <__setargv+0x1c3>
  4018ef:	8b 7d d4             	mov    -0x2c(%ebp),%edi
  4018f2:	e9 09 ff ff ff       	jmp    401800 <__setargv+0x200>
  4018f7:	8b 5d d4             	mov    -0x2c(%ebp),%ebx
  4018fa:	e9 cc fd ff ff       	jmp    4016cb <__setargv+0xcb>
  4018ff:	89 d0                	mov    %edx,%eax
  401901:	e9 15 fe ff ff       	jmp    40171b <__setargv+0x11b>
  401906:	8b 5d d4             	mov    -0x2c(%ebp),%ebx
  401909:	eb 98                	jmp    4018a3 <__setargv+0x2a3>
  40190b:	90                   	nop
  40190c:	90                   	nop
  40190d:	90                   	nop
  40190e:	90                   	nop
  40190f:	90                   	nop

00401910 <___report_error>:
  401910:	56                   	push   %esi
  401911:	53                   	push   %ebx
  401912:	83 ec 14             	sub    $0x14,%esp
  401915:	a1 c4 e1 40 00       	mov    0x40e1c4,%eax
  40191a:	c7 44 24 08 17 00 00 	movl   $0x17,0x8(%esp)
  401921:	00 
  401922:	8d 74 24 24          	lea    0x24(%esp),%esi
  401926:	c7 44 24 04 01 00 00 	movl   $0x1,0x4(%esp)
  40192d:	00 
  40192e:	c7 04 24 68 a0 40 00 	movl   $0x40a068,(%esp)
  401935:	8d 58 40             	lea    0x40(%eax),%ebx
  401938:	89 5c 24 0c          	mov    %ebx,0xc(%esp)
  40193c:	e8 0f 66 00 00       	call   407f50 <_fwrite>
  401941:	8b 44 24 20          	mov    0x20(%esp),%eax
  401945:	89 74 24 08          	mov    %esi,0x8(%esp)
  401949:	89 1c 24             	mov    %ebx,(%esp)
  40194c:	89 44 24 04          	mov    %eax,0x4(%esp)
  401950:	e8 03 66 00 00       	call   407f58 <_vfprintf>
  401955:	e8 06 66 00 00       	call   407f60 <_abort>
  40195a:	8d b6 00 00 00 00    	lea    0x0(%esi),%esi

00401960 <___write_memory.part.0>:
  401960:	55                   	push   %ebp
  401961:	89 e5                	mov    %esp,%ebp
  401963:	57                   	push   %edi
  401964:	89 cf                	mov    %ecx,%edi
  401966:	56                   	push   %esi
  401967:	89 d6                	mov    %edx,%esi
  401969:	53                   	push   %ebx
  40196a:	89 c3                	mov    %eax,%ebx
  40196c:	83 ec 4c             	sub    $0x4c,%esp
  40196f:	8d 45 cc             	lea    -0x34(%ebp),%eax
  401972:	c7 44 24 08 1c 00 00 	movl   $0x1c,0x8(%esp)
  401979:	00 
  40197a:	89 44 24 04          	mov    %eax,0x4(%esp)
  40197e:	89 1c 24             	mov    %ebx,(%esp)
  401981:	e8 9a 66 00 00       	call   408020 <_VirtualQuery@12>
  401986:	83 ec 0c             	sub    $0xc,%esp
  401989:	85 c0                	test   %eax,%eax
  40198b:	0f 84 9a 00 00 00    	je     401a2b <___write_memory.part.0+0xcb>
  401991:	8b 45 e0             	mov    -0x20(%ebp),%eax
  401994:	83 f8 04             	cmp    $0x4,%eax
  401997:	75 18                	jne    4019b1 <___write_memory.part.0+0x51>
  401999:	89 7c 24 08          	mov    %edi,0x8(%esp)
  40199d:	89 74 24 04          	mov    %esi,0x4(%esp)
  4019a1:	89 1c 24             	mov    %ebx,(%esp)
  4019a4:	e8 bf 65 00 00       	call   407f68 <_memcpy>
  4019a9:	8d 65 f4             	lea    -0xc(%ebp),%esp
  4019ac:	5b                   	pop    %ebx
  4019ad:	5e                   	pop    %esi
  4019ae:	5f                   	pop    %edi
  4019af:	5d                   	pop    %ebp
  4019b0:	c3                   	ret    
  4019b1:	83 f8 40             	cmp    $0x40,%eax
  4019b4:	74 e3                	je     401999 <___write_memory.part.0+0x39>
  4019b6:	8b 45 d8             	mov    -0x28(%ebp),%eax
  4019b9:	8d 55 c8             	lea    -0x38(%ebp),%edx
  4019bc:	89 54 24 0c          	mov    %edx,0xc(%esp)
  4019c0:	c7 44 24 08 40 00 00 	movl   $0x40,0x8(%esp)
  4019c7:	00 
  4019c8:	89 55 c4             	mov    %edx,-0x3c(%ebp)
  4019cb:	89 44 24 04          	mov    %eax,0x4(%esp)
  4019cf:	8b 45 cc             	mov    -0x34(%ebp),%eax
  4019d2:	89 04 24             	mov    %eax,(%esp)
  4019d5:	e8 4e 66 00 00       	call   408028 <_VirtualProtect@16>
  4019da:	8b 4d e0             	mov    -0x20(%ebp),%ecx
  4019dd:	89 4d c0             	mov    %ecx,-0x40(%ebp)
  4019e0:	83 ec 10             	sub    $0x10,%esp
  4019e3:	89 7c 24 08          	mov    %edi,0x8(%esp)
  4019e7:	89 74 24 04          	mov    %esi,0x4(%esp)
  4019eb:	89 1c 24             	mov    %ebx,(%esp)
  4019ee:	e8 75 65 00 00       	call   407f68 <_memcpy>
  4019f3:	8b 4d c0             	mov    -0x40(%ebp),%ecx
  4019f6:	83 f9 04             	cmp    $0x4,%ecx
  4019f9:	74 ae                	je     4019a9 <___write_memory.part.0+0x49>
  4019fb:	83 f9 40             	cmp    $0x40,%ecx
  4019fe:	74 a9                	je     4019a9 <___write_memory.part.0+0x49>
  401a00:	8b 45 c8             	mov    -0x38(%ebp),%eax
  401a03:	8b 55 c4             	mov    -0x3c(%ebp),%edx
  401a06:	89 44 24 08          	mov    %eax,0x8(%esp)
  401a0a:	8b 45 d8             	mov    -0x28(%ebp),%eax
  401a0d:	89 54 24 0c          	mov    %edx,0xc(%esp)
  401a11:	89 44 24 04          	mov    %eax,0x4(%esp)
  401a15:	8b 45 cc             	mov    -0x34(%ebp),%eax
  401a18:	89 04 24             	mov    %eax,(%esp)
  401a1b:	e8 08 66 00 00       	call   408028 <_VirtualProtect@16>
  401a20:	83 ec 10             	sub    $0x10,%esp
  401a23:	8d 65 f4             	lea    -0xc(%ebp),%esp
  401a26:	5b                   	pop    %ebx
  401a27:	5e                   	pop    %esi
  401a28:	5f                   	pop    %edi
  401a29:	5d                   	pop    %ebp
  401a2a:	c3                   	ret    
  401a2b:	89 5c 24 08          	mov    %ebx,0x8(%esp)
  401a2f:	c7 44 24 04 1c 00 00 	movl   $0x1c,0x4(%esp)
  401a36:	00 
  401a37:	c7 04 24 80 a0 40 00 	movl   $0x40a080,(%esp)
  401a3e:	e8 cd fe ff ff       	call   401910 <___report_error>
  401a43:	8d b6 00 00 00 00    	lea    0x0(%esi),%esi
  401a49:	8d bc 27 00 00 00 00 	lea    0x0(%edi,%eiz,1),%edi

00401a50 <__pei386_runtime_relocator>:
  401a50:	a1 38 d0 40 00       	mov    0x40d038,%eax
  401a55:	85 c0                	test   %eax,%eax
  401a57:	74 07                	je     401a60 <__pei386_runtime_relocator+0x10>
  401a59:	c3                   	ret    
  401a5a:	8d b6 00 00 00 00    	lea    0x0(%esi),%esi
  401a60:	b8 20 a7 40 00       	mov    $0x40a720,%eax
  401a65:	2d 20 a7 40 00       	sub    $0x40a720,%eax
  401a6a:	83 f8 07             	cmp    $0x7,%eax
  401a6d:	c7 05 38 d0 40 00 01 	movl   $0x1,0x40d038
  401a74:	00 00 00 
  401a77:	7e e0                	jle    401a59 <__pei386_runtime_relocator+0x9>
  401a79:	57                   	push   %edi
  401a7a:	56                   	push   %esi
  401a7b:	53                   	push   %ebx
  401a7c:	83 ec 20             	sub    $0x20,%esp
  401a7f:	83 f8 0b             	cmp    $0xb,%eax
  401a82:	0f 8e de 00 00 00    	jle    401b66 <__pei386_runtime_relocator+0x116>
  401a88:	8b 35 20 a7 40 00    	mov    0x40a720,%esi
  401a8e:	85 f6                	test   %esi,%esi
  401a90:	0f 85 8a 00 00 00    	jne    401b20 <__pei386_runtime_relocator+0xd0>
  401a96:	8b 1d 24 a7 40 00    	mov    0x40a724,%ebx
  401a9c:	85 db                	test   %ebx,%ebx
  401a9e:	0f 85 7c 00 00 00    	jne    401b20 <__pei386_runtime_relocator+0xd0>
  401aa4:	8b 0d 28 a7 40 00    	mov    0x40a728,%ecx
  401aaa:	bb 2c a7 40 00       	mov    $0x40a72c,%ebx
  401aaf:	85 c9                	test   %ecx,%ecx
  401ab1:	0f 84 b4 00 00 00    	je     401b6b <__pei386_runtime_relocator+0x11b>
  401ab7:	bb 20 a7 40 00       	mov    $0x40a720,%ebx
  401abc:	8b 43 08             	mov    0x8(%ebx),%eax
  401abf:	83 f8 01             	cmp    $0x1,%eax
  401ac2:	0f 85 49 01 00 00    	jne    401c11 <__pei386_runtime_relocator+0x1c1>
  401ac8:	83 c3 0c             	add    $0xc,%ebx
  401acb:	81 fb 20 a7 40 00    	cmp    $0x40a720,%ebx
  401ad1:	0f 83 88 00 00 00    	jae    401b5f <__pei386_runtime_relocator+0x10f>
  401ad7:	0f b6 53 08          	movzbl 0x8(%ebx),%edx
  401adb:	8b 73 04             	mov    0x4(%ebx),%esi
  401ade:	8b 0b                	mov    (%ebx),%ecx
  401ae0:	83 fa 10             	cmp    $0x10,%edx
  401ae3:	8d 86 00 00 40 00    	lea    0x400000(%esi),%eax
  401ae9:	8b b9 00 00 40 00    	mov    0x400000(%ecx),%edi
  401aef:	0f 84 8b 00 00 00    	je     401b80 <__pei386_runtime_relocator+0x130>
  401af5:	83 fa 20             	cmp    $0x20,%edx
  401af8:	0f 84 f2 00 00 00    	je     401bf0 <__pei386_runtime_relocator+0x1a0>
  401afe:	83 fa 08             	cmp    $0x8,%edx
  401b01:	0f 84 af 00 00 00    	je     401bb6 <__pei386_runtime_relocator+0x166>
  401b07:	89 54 24 04          	mov    %edx,0x4(%esp)
  401b0b:	c7 04 24 e8 a0 40 00 	movl   $0x40a0e8,(%esp)
  401b12:	c7 44 24 1c 00 00 00 	movl   $0x0,0x1c(%esp)
  401b19:	00 
  401b1a:	e8 f1 fd ff ff       	call   401910 <___report_error>
  401b1f:	90                   	nop
  401b20:	bb 20 a7 40 00       	mov    $0x40a720,%ebx
  401b25:	81 fb 20 a7 40 00    	cmp    $0x40a720,%ebx
  401b2b:	73 32                	jae    401b5f <__pei386_runtime_relocator+0x10f>
  401b2d:	8d 76 00             	lea    0x0(%esi),%esi
  401b30:	8b 53 04             	mov    0x4(%ebx),%edx
  401b33:	b9 04 00 00 00       	mov    $0x4,%ecx
  401b38:	83 c3 08             	add    $0x8,%ebx
  401b3b:	8d 82 00 00 40 00    	lea    0x400000(%edx),%eax
  401b41:	8b 92 00 00 40 00    	mov    0x400000(%edx),%edx
  401b47:	03 53 f8             	add    -0x8(%ebx),%edx
  401b4a:	89 54 24 1c          	mov    %edx,0x1c(%esp)
  401b4e:	8d 54 24 1c          	lea    0x1c(%esp),%edx
  401b52:	e8 09 fe ff ff       	call   401960 <___write_memory.part.0>
  401b57:	81 fb 20 a7 40 00    	cmp    $0x40a720,%ebx
  401b5d:	72 d1                	jb     401b30 <__pei386_runtime_relocator+0xe0>
  401b5f:	83 c4 20             	add    $0x20,%esp
  401b62:	5b                   	pop    %ebx
  401b63:	5e                   	pop    %esi
  401b64:	5f                   	pop    %edi
  401b65:	c3                   	ret    
  401b66:	bb 20 a7 40 00       	mov    $0x40a720,%ebx
  401b6b:	8b 13                	mov    (%ebx),%edx
  401b6d:	85 d2                	test   %edx,%edx
  401b6f:	75 b4                	jne    401b25 <__pei386_runtime_relocator+0xd5>
  401b71:	8b 43 04             	mov    0x4(%ebx),%eax
  401b74:	85 c0                	test   %eax,%eax
  401b76:	0f 84 40 ff ff ff    	je     401abc <__pei386_runtime_relocator+0x6c>
  401b7c:	eb a7                	jmp    401b25 <__pei386_runtime_relocator+0xd5>
  401b7e:	66 90                	xchg   %ax,%ax
  401b80:	0f b7 b6 00 00 40 00 	movzwl 0x400000(%esi),%esi
  401b87:	66 85 f6             	test   %si,%si
  401b8a:	0f b7 d6             	movzwl %si,%edx
  401b8d:	79 06                	jns    401b95 <__pei386_runtime_relocator+0x145>
  401b8f:	81 ca 00 00 ff ff    	or     $0xffff0000,%edx
  401b95:	29 ca                	sub    %ecx,%edx
  401b97:	b9 02 00 00 00       	mov    $0x2,%ecx
  401b9c:	81 ea 00 00 40 00    	sub    $0x400000,%edx
  401ba2:	01 fa                	add    %edi,%edx
  401ba4:	89 54 24 1c          	mov    %edx,0x1c(%esp)
  401ba8:	8d 54 24 1c          	lea    0x1c(%esp),%edx
  401bac:	e8 af fd ff ff       	call   401960 <___write_memory.part.0>
  401bb1:	e9 12 ff ff ff       	jmp    401ac8 <__pei386_runtime_relocator+0x78>
  401bb6:	0f b6 10             	movzbl (%eax),%edx
  401bb9:	84 d2                	test   %dl,%dl
  401bbb:	0f b6 f2             	movzbl %dl,%esi
  401bbe:	79 06                	jns    401bc6 <__pei386_runtime_relocator+0x176>
  401bc0:	81 ce 00 ff ff ff    	or     $0xffffff00,%esi
  401bc6:	81 ee 00 00 40 00    	sub    $0x400000,%esi
  401bcc:	89 f2                	mov    %esi,%edx
  401bce:	29 ca                	sub    %ecx,%edx
  401bd0:	b9 01 00 00 00       	mov    $0x1,%ecx
  401bd5:	01 fa                	add    %edi,%edx
  401bd7:	89 54 24 1c          	mov    %edx,0x1c(%esp)
  401bdb:	8d 54 24 1c          	lea    0x1c(%esp),%edx
  401bdf:	e8 7c fd ff ff       	call   401960 <___write_memory.part.0>
  401be4:	e9 df fe ff ff       	jmp    401ac8 <__pei386_runtime_relocator+0x78>
  401be9:	8d b4 26 00 00 00 00 	lea    0x0(%esi,%eiz,1),%esi
  401bf0:	81 c1 00 00 40 00    	add    $0x400000,%ecx
  401bf6:	29 cf                	sub    %ecx,%edi
  401bf8:	b9 04 00 00 00       	mov    $0x4,%ecx
  401bfd:	03 38                	add    (%eax),%edi
  401bff:	8d 54 24 1c          	lea    0x1c(%esp),%edx
  401c03:	89 7c 24 1c          	mov    %edi,0x1c(%esp)
  401c07:	e8 54 fd ff ff       	call   401960 <___write_memory.part.0>
  401c0c:	e9 b7 fe ff ff       	jmp    401ac8 <__pei386_runtime_relocator+0x78>
  401c11:	89 44 24 04          	mov    %eax,0x4(%esp)
  401c15:	c7 04 24 b4 a0 40 00 	movl   $0x40a0b4,(%esp)
  401c1c:	e8 ef fc ff ff       	call   401910 <___report_error>
  401c21:	90                   	nop
  401c22:	90                   	nop
  401c23:	90                   	nop
  401c24:	90                   	nop
  401c25:	90                   	nop
  401c26:	90                   	nop
  401c27:	90                   	nop
  401c28:	90                   	nop
  401c29:	90                   	nop
  401c2a:	90                   	nop
  401c2b:	90                   	nop
  401c2c:	90                   	nop
  401c2d:	90                   	nop
  401c2e:	90                   	nop
  401c2f:	90                   	nop

00401c30 <___do_global_dtors>:
  401c30:	a1 08 90 40 00       	mov    0x409008,%eax
  401c35:	8b 00                	mov    (%eax),%eax
  401c37:	85 c0                	test   %eax,%eax
  401c39:	74 1f                	je     401c5a <___do_global_dtors+0x2a>
  401c3b:	83 ec 0c             	sub    $0xc,%esp
  401c3e:	66 90                	xchg   %ax,%ax
  401c40:	ff d0                	call   *%eax
  401c42:	a1 08 90 40 00       	mov    0x409008,%eax
  401c47:	8d 50 04             	lea    0x4(%eax),%edx
  401c4a:	8b 40 04             	mov    0x4(%eax),%eax
  401c4d:	89 15 08 90 40 00    	mov    %edx,0x409008
  401c53:	85 c0                	test   %eax,%eax
  401c55:	75 e9                	jne    401c40 <___do_global_dtors+0x10>
  401c57:	83 c4 0c             	add    $0xc,%esp
  401c5a:	f3 c3                	repz ret 
  401c5c:	8d 74 26 00          	lea    0x0(%esi,%eiz,1),%esi

00401c60 <___do_global_ctors>:
  401c60:	53                   	push   %ebx
  401c61:	83 ec 18             	sub    $0x18,%esp
  401c64:	8b 1d 30 83 40 00    	mov    0x408330,%ebx
  401c6a:	83 fb ff             	cmp    $0xffffffff,%ebx
  401c6d:	74 24                	je     401c93 <___do_global_ctors+0x33>
  401c6f:	85 db                	test   %ebx,%ebx
  401c71:	74 0f                	je     401c82 <___do_global_ctors+0x22>
  401c73:	ff 14 9d 30 83 40 00 	call   *0x408330(,%ebx,4)
  401c7a:	83 eb 01             	sub    $0x1,%ebx
  401c7d:	8d 76 00             	lea    0x0(%esi),%esi
  401c80:	75 f1                	jne    401c73 <___do_global_ctors+0x13>
  401c82:	c7 04 24 30 1c 40 00 	movl   $0x401c30,(%esp)
  401c89:	e8 52 f6 ff ff       	call   4012e0 <_atexit>
  401c8e:	83 c4 18             	add    $0x18,%esp
  401c91:	5b                   	pop    %ebx
  401c92:	c3                   	ret    
  401c93:	31 db                	xor    %ebx,%ebx
  401c95:	eb 02                	jmp    401c99 <___do_global_ctors+0x39>
  401c97:	89 c3                	mov    %eax,%ebx
  401c99:	8d 43 01             	lea    0x1(%ebx),%eax
  401c9c:	8b 14 85 30 83 40 00 	mov    0x408330(,%eax,4),%edx
  401ca3:	85 d2                	test   %edx,%edx
  401ca5:	75 f0                	jne    401c97 <___do_global_ctors+0x37>
  401ca7:	eb c6                	jmp    401c6f <___do_global_ctors+0xf>
  401ca9:	8d b4 26 00 00 00 00 	lea    0x0(%esi,%eiz,1),%esi

00401cb0 <___main>:
  401cb0:	8b 0d 3c d0 40 00    	mov    0x40d03c,%ecx
  401cb6:	85 c9                	test   %ecx,%ecx
  401cb8:	74 06                	je     401cc0 <___main+0x10>
  401cba:	f3 c3                	repz ret 
  401cbc:	8d 74 26 00          	lea    0x0(%esi,%eiz,1),%esi
  401cc0:	c7 05 3c d0 40 00 01 	movl   $0x1,0x40d03c
  401cc7:	00 00 00 
  401cca:	eb 94                	jmp    401c60 <___do_global_ctors>
  401ccc:	90                   	nop
  401ccd:	90                   	nop
  401cce:	90                   	nop
  401ccf:	90                   	nop

00401cd0 <___mingwthr_run_key_dtors.part.0>:
  401cd0:	55                   	push   %ebp
  401cd1:	89 e5                	mov    %esp,%ebp
  401cd3:	56                   	push   %esi
  401cd4:	53                   	push   %ebx
  401cd5:	83 ec 10             	sub    $0x10,%esp
  401cd8:	c7 04 24 4c d0 40 00 	movl   $0x40d04c,(%esp)
  401cdf:	e8 4c 63 00 00       	call   408030 <_EnterCriticalSection@4>
  401ce4:	8b 1d 44 d0 40 00    	mov    0x40d044,%ebx
  401cea:	83 ec 04             	sub    $0x4,%esp
  401ced:	85 db                	test   %ebx,%ebx
  401cef:	74 2b                	je     401d1c <___mingwthr_run_key_dtors.part.0+0x4c>
  401cf1:	8b 03                	mov    (%ebx),%eax
  401cf3:	89 04 24             	mov    %eax,(%esp)
  401cf6:	e8 3d 63 00 00       	call   408038 <_TlsGetValue@4>
  401cfb:	83 ec 04             	sub    $0x4,%esp
  401cfe:	89 c6                	mov    %eax,%esi
  401d00:	e8 3b 63 00 00       	call   408040 <_GetLastError@0>
  401d05:	85 c0                	test   %eax,%eax
  401d07:	75 0c                	jne    401d15 <___mingwthr_run_key_dtors.part.0+0x45>
  401d09:	85 f6                	test   %esi,%esi
  401d0b:	74 08                	je     401d15 <___mingwthr_run_key_dtors.part.0+0x45>
  401d0d:	8b 43 04             	mov    0x4(%ebx),%eax
  401d10:	89 34 24             	mov    %esi,(%esp)
  401d13:	ff d0                	call   *%eax
  401d15:	8b 5b 08             	mov    0x8(%ebx),%ebx
  401d18:	85 db                	test   %ebx,%ebx
  401d1a:	75 d5                	jne    401cf1 <___mingwthr_run_key_dtors.part.0+0x21>
  401d1c:	c7 04 24 4c d0 40 00 	movl   $0x40d04c,(%esp)
  401d23:	e8 20 63 00 00       	call   408048 <_LeaveCriticalSection@4>
  401d28:	83 ec 04             	sub    $0x4,%esp
  401d2b:	8d 65 f8             	lea    -0x8(%ebp),%esp
  401d2e:	5b                   	pop    %ebx
  401d2f:	5e                   	pop    %esi
  401d30:	5d                   	pop    %ebp
  401d31:	c3                   	ret    
  401d32:	8d b4 26 00 00 00 00 	lea    0x0(%esi,%eiz,1),%esi
  401d39:	8d bc 27 00 00 00 00 	lea    0x0(%edi,%eiz,1),%edi

00401d40 <____w64_mingwthr_add_key_dtor>:
  401d40:	55                   	push   %ebp
  401d41:	89 e5                	mov    %esp,%ebp
  401d43:	56                   	push   %esi
  401d44:	31 f6                	xor    %esi,%esi
  401d46:	53                   	push   %ebx
  401d47:	83 ec 10             	sub    $0x10,%esp
  401d4a:	a1 48 d0 40 00       	mov    0x40d048,%eax
  401d4f:	85 c0                	test   %eax,%eax
  401d51:	75 0d                	jne    401d60 <____w64_mingwthr_add_key_dtor+0x20>
  401d53:	8d 65 f8             	lea    -0x8(%ebp),%esp
  401d56:	89 f0                	mov    %esi,%eax
  401d58:	5b                   	pop    %ebx
  401d59:	5e                   	pop    %esi
  401d5a:	5d                   	pop    %ebp
  401d5b:	c3                   	ret    
  401d5c:	8d 74 26 00          	lea    0x0(%esi,%eiz,1),%esi
  401d60:	c7 44 24 04 0c 00 00 	movl   $0xc,0x4(%esp)
  401d67:	00 
  401d68:	c7 04 24 01 00 00 00 	movl   $0x1,(%esp)
  401d6f:	e8 fc 61 00 00       	call   407f70 <_calloc>
  401d74:	85 c0                	test   %eax,%eax
  401d76:	89 c3                	mov    %eax,%ebx
  401d78:	74 40                	je     401dba <____w64_mingwthr_add_key_dtor+0x7a>
  401d7a:	8b 45 08             	mov    0x8(%ebp),%eax
  401d7d:	c7 04 24 4c d0 40 00 	movl   $0x40d04c,(%esp)
  401d84:	89 03                	mov    %eax,(%ebx)
  401d86:	8b 45 0c             	mov    0xc(%ebp),%eax
  401d89:	89 43 04             	mov    %eax,0x4(%ebx)
  401d8c:	e8 9f 62 00 00       	call   408030 <_EnterCriticalSection@4>
  401d91:	a1 44 d0 40 00       	mov    0x40d044,%eax
  401d96:	89 1d 44 d0 40 00    	mov    %ebx,0x40d044
  401d9c:	89 43 08             	mov    %eax,0x8(%ebx)
  401d9f:	83 ec 04             	sub    $0x4,%esp
  401da2:	c7 04 24 4c d0 40 00 	movl   $0x40d04c,(%esp)
  401da9:	e8 9a 62 00 00       	call   408048 <_LeaveCriticalSection@4>
  401dae:	89 f0                	mov    %esi,%eax
  401db0:	83 ec 04             	sub    $0x4,%esp
  401db3:	8d 65 f8             	lea    -0x8(%ebp),%esp
  401db6:	5b                   	pop    %ebx
  401db7:	5e                   	pop    %esi
  401db8:	5d                   	pop    %ebp
  401db9:	c3                   	ret    
  401dba:	be ff ff ff ff       	mov    $0xffffffff,%esi
  401dbf:	eb 92                	jmp    401d53 <____w64_mingwthr_add_key_dtor+0x13>
  401dc1:	eb 0d                	jmp    401dd0 <____w64_mingwthr_remove_key_dtor>
  401dc3:	90                   	nop
  401dc4:	90                   	nop
  401dc5:	90                   	nop
  401dc6:	90                   	nop
  401dc7:	90                   	nop
  401dc8:	90                   	nop
  401dc9:	90                   	nop
  401dca:	90                   	nop
  401dcb:	90                   	nop
  401dcc:	90                   	nop
  401dcd:	90                   	nop
  401dce:	90                   	nop
  401dcf:	90                   	nop

00401dd0 <____w64_mingwthr_remove_key_dtor>:
  401dd0:	55                   	push   %ebp
  401dd1:	89 e5                	mov    %esp,%ebp
  401dd3:	53                   	push   %ebx
  401dd4:	83 ec 14             	sub    $0x14,%esp
  401dd7:	a1 48 d0 40 00       	mov    0x40d048,%eax
  401ddc:	8b 5d 08             	mov    0x8(%ebp),%ebx
  401ddf:	85 c0                	test   %eax,%eax
  401de1:	75 0d                	jne    401df0 <____w64_mingwthr_remove_key_dtor+0x20>
  401de3:	31 c0                	xor    %eax,%eax
  401de5:	8b 5d fc             	mov    -0x4(%ebp),%ebx
  401de8:	c9                   	leave  
  401de9:	c3                   	ret    
  401dea:	8d b6 00 00 00 00    	lea    0x0(%esi),%esi
  401df0:	c7 04 24 4c d0 40 00 	movl   $0x40d04c,(%esp)
  401df7:	e8 34 62 00 00       	call   408030 <_EnterCriticalSection@4>
  401dfc:	8b 15 44 d0 40 00    	mov    0x40d044,%edx
  401e02:	83 ec 04             	sub    $0x4,%esp
  401e05:	85 d2                	test   %edx,%edx
  401e07:	74 17                	je     401e20 <____w64_mingwthr_remove_key_dtor+0x50>
  401e09:	8b 02                	mov    (%edx),%eax
  401e0b:	39 d8                	cmp    %ebx,%eax
  401e0d:	75 0a                	jne    401e19 <____w64_mingwthr_remove_key_dtor+0x49>
  401e0f:	eb 44                	jmp    401e55 <____w64_mingwthr_remove_key_dtor+0x85>
  401e11:	8b 08                	mov    (%eax),%ecx
  401e13:	39 d9                	cmp    %ebx,%ecx
  401e15:	74 1f                	je     401e36 <____w64_mingwthr_remove_key_dtor+0x66>
  401e17:	89 c2                	mov    %eax,%edx
  401e19:	8b 42 08             	mov    0x8(%edx),%eax
  401e1c:	85 c0                	test   %eax,%eax
  401e1e:	75 f1                	jne    401e11 <____w64_mingwthr_remove_key_dtor+0x41>
  401e20:	c7 04 24 4c d0 40 00 	movl   $0x40d04c,(%esp)
  401e27:	e8 1c 62 00 00       	call   408048 <_LeaveCriticalSection@4>
  401e2c:	83 ec 04             	sub    $0x4,%esp
  401e2f:	31 c0                	xor    %eax,%eax
  401e31:	8b 5d fc             	mov    -0x4(%ebp),%ebx
  401e34:	c9                   	leave  
  401e35:	c3                   	ret    
  401e36:	8b 48 08             	mov    0x8(%eax),%ecx
  401e39:	89 4a 08             	mov    %ecx,0x8(%edx)
  401e3c:	89 04 24             	mov    %eax,(%esp)
  401e3f:	e8 34 61 00 00       	call   407f78 <_free>
  401e44:	c7 04 24 4c d0 40 00 	movl   $0x40d04c,(%esp)
  401e4b:	e8 f8 61 00 00       	call   408048 <_LeaveCriticalSection@4>
  401e50:	83 ec 04             	sub    $0x4,%esp
  401e53:	eb da                	jmp    401e2f <____w64_mingwthr_remove_key_dtor+0x5f>
  401e55:	8b 42 08             	mov    0x8(%edx),%eax
  401e58:	a3 44 d0 40 00       	mov    %eax,0x40d044
  401e5d:	89 d0                	mov    %edx,%eax
  401e5f:	eb db                	jmp    401e3c <____w64_mingwthr_remove_key_dtor+0x6c>
  401e61:	eb 0d                	jmp    401e70 <___mingw_TLScallback>
  401e63:	90                   	nop
  401e64:	90                   	nop
  401e65:	90                   	nop
  401e66:	90                   	nop
  401e67:	90                   	nop
  401e68:	90                   	nop
  401e69:	90                   	nop
  401e6a:	90                   	nop
  401e6b:	90                   	nop
  401e6c:	90                   	nop
  401e6d:	90                   	nop
  401e6e:	90                   	nop
  401e6f:	90                   	nop

00401e70 <___mingw_TLScallback>:
  401e70:	55                   	push   %ebp
  401e71:	89 e5                	mov    %esp,%ebp
  401e73:	83 ec 18             	sub    $0x18,%esp
  401e76:	8b 45 0c             	mov    0xc(%ebp),%eax
  401e79:	83 f8 01             	cmp    $0x1,%eax
  401e7c:	74 45                	je     401ec3 <___mingw_TLScallback+0x53>
  401e7e:	72 15                	jb     401e95 <___mingw_TLScallback+0x25>
  401e80:	83 f8 03             	cmp    $0x3,%eax
  401e83:	75 09                	jne    401e8e <___mingw_TLScallback+0x1e>
  401e85:	a1 48 d0 40 00       	mov    0x40d048,%eax
  401e8a:	85 c0                	test   %eax,%eax
  401e8c:	75 63                	jne    401ef1 <___mingw_TLScallback+0x81>
  401e8e:	b8 01 00 00 00       	mov    $0x1,%eax
  401e93:	c9                   	leave  
  401e94:	c3                   	ret    
  401e95:	a1 48 d0 40 00       	mov    0x40d048,%eax
  401e9a:	85 c0                	test   %eax,%eax
  401e9c:	75 5a                	jne    401ef8 <___mingw_TLScallback+0x88>
  401e9e:	a1 48 d0 40 00       	mov    0x40d048,%eax
  401ea3:	83 f8 01             	cmp    $0x1,%eax
  401ea6:	75 e6                	jne    401e8e <___mingw_TLScallback+0x1e>
  401ea8:	c7 04 24 4c d0 40 00 	movl   $0x40d04c,(%esp)
  401eaf:	c7 05 48 d0 40 00 00 	movl   $0x0,0x40d048
  401eb6:	00 00 00 
  401eb9:	e8 92 61 00 00       	call   408050 <_DeleteCriticalSection@4>
  401ebe:	83 ec 04             	sub    $0x4,%esp
  401ec1:	eb cb                	jmp    401e8e <___mingw_TLScallback+0x1e>
  401ec3:	a1 48 d0 40 00       	mov    0x40d048,%eax
  401ec8:	85 c0                	test   %eax,%eax
  401eca:	74 14                	je     401ee0 <___mingw_TLScallback+0x70>
  401ecc:	c7 05 48 d0 40 00 01 	movl   $0x1,0x40d048
  401ed3:	00 00 00 
  401ed6:	b8 01 00 00 00       	mov    $0x1,%eax
  401edb:	c9                   	leave  
  401edc:	c3                   	ret    
  401edd:	8d 76 00             	lea    0x0(%esi),%esi
  401ee0:	c7 04 24 4c d0 40 00 	movl   $0x40d04c,(%esp)
  401ee7:	e8 6c 61 00 00       	call   408058 <_InitializeCriticalSection@4>
  401eec:	83 ec 04             	sub    $0x4,%esp
  401eef:	eb db                	jmp    401ecc <___mingw_TLScallback+0x5c>
  401ef1:	e8 da fd ff ff       	call   401cd0 <___mingwthr_run_key_dtors.part.0>
  401ef6:	eb 96                	jmp    401e8e <___mingw_TLScallback+0x1e>
  401ef8:	90                   	nop
  401ef9:	8d b4 26 00 00 00 00 	lea    0x0(%esi,%eiz,1),%esi
  401f00:	e8 cb fd ff ff       	call   401cd0 <___mingwthr_run_key_dtors.part.0>
  401f05:	eb 97                	jmp    401e9e <___mingw_TLScallback+0x2e>
  401f07:	90                   	nop
  401f08:	90                   	nop
  401f09:	90                   	nop
  401f0a:	90                   	nop
  401f0b:	90                   	nop
  401f0c:	90                   	nop
  401f0d:	90                   	nop
  401f0e:	90                   	nop
  401f0f:	90                   	nop

00401f10 <___chkstk_ms>:
  401f10:	51                   	push   %ecx
  401f11:	50                   	push   %eax
  401f12:	3d 00 10 00 00       	cmp    $0x1000,%eax
  401f17:	8d 4c 24 0c          	lea    0xc(%esp),%ecx
  401f1b:	72 15                	jb     401f32 <___chkstk_ms+0x22>
  401f1d:	81 e9 00 10 00 00    	sub    $0x1000,%ecx
  401f23:	83 09 00             	orl    $0x0,(%ecx)
  401f26:	2d 00 10 00 00       	sub    $0x1000,%eax
  401f2b:	3d 00 10 00 00       	cmp    $0x1000,%eax
  401f30:	77 eb                	ja     401f1d <___chkstk_ms+0xd>
  401f32:	29 c1                	sub    %eax,%ecx
  401f34:	83 09 00             	orl    $0x0,(%ecx)
  401f37:	58                   	pop    %eax
  401f38:	59                   	pop    %ecx
  401f39:	c3                   	ret    
  401f3a:	90                   	nop
  401f3b:	90                   	nop

00401f3c <.text>:
  401f3c:	66 90                	xchg   %ax,%ax
  401f3e:	66 90                	xchg   %ax,%ax

00401f40 <_is_glob_pattern>:
  401f40:	57                   	push   %edi
  401f41:	85 c0                	test   %eax,%eax
  401f43:	56                   	push   %esi
  401f44:	53                   	push   %ebx
  401f45:	89 c3                	mov    %eax,%ebx
  401f47:	74 44                	je     401f8d <_is_glob_pattern+0x4d>
  401f49:	0f be 0b             	movsbl (%ebx),%ecx
  401f4c:	89 d6                	mov    %edx,%esi
  401f4e:	31 c0                	xor    %eax,%eax
  401f50:	83 e6 20             	and    $0x20,%esi
  401f53:	8d 53 01             	lea    0x1(%ebx),%edx
  401f56:	85 c9                	test   %ecx,%ecx
  401f58:	74 33                	je     401f8d <_is_glob_pattern+0x4d>
  401f5a:	8d b6 00 00 00 00    	lea    0x0(%esi),%esi
  401f60:	85 f6                	test   %esi,%esi
  401f62:	89 f7                	mov    %esi,%edi
  401f64:	75 05                	jne    401f6b <_is_glob_pattern+0x2b>
  401f66:	83 f9 7f             	cmp    $0x7f,%ecx
  401f69:	74 45                	je     401fb0 <_is_glob_pattern+0x70>
  401f6b:	85 c0                	test   %eax,%eax
  401f6d:	75 26                	jne    401f95 <_is_glob_pattern+0x55>
  401f6f:	83 f9 3f             	cmp    $0x3f,%ecx
  401f72:	74 51                	je     401fc5 <_is_glob_pattern+0x85>
  401f74:	83 f9 2a             	cmp    $0x2a,%ecx
  401f77:	74 4c                	je     401fc5 <_is_glob_pattern+0x85>
  401f79:	31 c0                	xor    %eax,%eax
  401f7b:	83 f9 5b             	cmp    $0x5b,%ecx
  401f7e:	0f 94 c0             	sete   %al
  401f81:	89 d3                	mov    %edx,%ebx
  401f83:	0f be 0b             	movsbl (%ebx),%ecx
  401f86:	8d 53 01             	lea    0x1(%ebx),%edx
  401f89:	85 c9                	test   %ecx,%ecx
  401f8b:	75 d3                	jne    401f60 <_is_glob_pattern+0x20>
  401f8d:	31 ff                	xor    %edi,%edi
  401f8f:	89 f8                	mov    %edi,%eax
  401f91:	5b                   	pop    %ebx
  401f92:	5e                   	pop    %esi
  401f93:	5f                   	pop    %edi
  401f94:	c3                   	ret    
  401f95:	83 f9 5d             	cmp    $0x5d,%ecx
  401f98:	74 26                	je     401fc0 <_is_glob_pattern+0x80>
  401f9a:	83 f9 21             	cmp    $0x21,%ecx
  401f9d:	89 d3                	mov    %edx,%ebx
  401f9f:	0f 95 c1             	setne  %cl
  401fa2:	0f b6 c9             	movzbl %cl,%ecx
  401fa5:	01 c8                	add    %ecx,%eax
  401fa7:	eb da                	jmp    401f83 <_is_glob_pattern+0x43>
  401fa9:	8d b4 26 00 00 00 00 	lea    0x0(%esi,%eiz,1),%esi
  401fb0:	80 7b 01 00          	cmpb   $0x0,0x1(%ebx)
  401fb4:	8d 53 02             	lea    0x2(%ebx),%edx
  401fb7:	75 b2                	jne    401f6b <_is_glob_pattern+0x2b>
  401fb9:	eb d4                	jmp    401f8f <_is_glob_pattern+0x4f>
  401fbb:	90                   	nop
  401fbc:	8d 74 26 00          	lea    0x0(%esi,%eiz,1),%esi
  401fc0:	83 f8 01             	cmp    $0x1,%eax
  401fc3:	7e d5                	jle    401f9a <_is_glob_pattern+0x5a>
  401fc5:	bf 01 00 00 00       	mov    $0x1,%edi
  401fca:	89 f8                	mov    %edi,%eax
  401fcc:	5b                   	pop    %ebx
  401fcd:	5e                   	pop    %esi
  401fce:	5f                   	pop    %edi
  401fcf:	c3                   	ret    

00401fd0 <_glob_in_set>:
  401fd0:	55                   	push   %ebp
  401fd1:	57                   	push   %edi
  401fd2:	56                   	push   %esi
  401fd3:	53                   	push   %ebx
  401fd4:	83 ec 04             	sub    $0x4,%esp
  401fd7:	0f b6 18             	movzbl (%eax),%ebx
  401fda:	89 0c 24             	mov    %ecx,(%esp)
  401fdd:	0f be fb             	movsbl %bl,%edi
  401fe0:	83 ff 5d             	cmp    $0x5d,%edi
  401fe3:	0f 84 d7 00 00 00    	je     4020c0 <_glob_in_set+0xf0>
  401fe9:	83 ff 2d             	cmp    $0x2d,%edi
  401fec:	89 d9                	mov    %ebx,%ecx
  401fee:	75 2e                	jne    40201e <_glob_in_set+0x4e>
  401ff0:	e9 cb 00 00 00       	jmp    4020c0 <_glob_in_set+0xf0>
  401ff5:	85 db                	test   %ebx,%ebx
  401ff7:	0f 84 b3 00 00 00    	je     4020b0 <_glob_in_set+0xe0>
  401ffd:	83 fb 5c             	cmp    $0x5c,%ebx
  402000:	0f 84 aa 00 00 00    	je     4020b0 <_glob_in_set+0xe0>
  402006:	83 fb 2f             	cmp    $0x2f,%ebx
  402009:	0f 84 a1 00 00 00    	je     4020b0 <_glob_in_set+0xe0>
  40200f:	89 df                	mov    %ebx,%edi
  402011:	0f b6 0e             	movzbl (%esi),%ecx
  402014:	89 f0                	mov    %esi,%eax
  402016:	39 d7                	cmp    %edx,%edi
  402018:	0f 84 ca 00 00 00    	je     4020e8 <_glob_in_set+0x118>
  40201e:	0f be d9             	movsbl %cl,%ebx
  402021:	83 fb 5d             	cmp    $0x5d,%ebx
  402024:	8d 70 01             	lea    0x1(%eax),%esi
  402027:	0f 84 83 00 00 00    	je     4020b0 <_glob_in_set+0xe0>
  40202d:	83 fb 2d             	cmp    $0x2d,%ebx
  402030:	75 c3                	jne    401ff5 <_glob_in_set+0x25>
  402032:	0f b6 58 01          	movzbl 0x1(%eax),%ebx
  402036:	80 fb 5d             	cmp    $0x5d,%bl
  402039:	0f 84 95 00 00 00    	je     4020d4 <_glob_in_set+0x104>
  40203f:	0f be eb             	movsbl %bl,%ebp
  402042:	85 ed                	test   %ebp,%ebp
  402044:	89 eb                	mov    %ebp,%ebx
  402046:	74 68                	je     4020b0 <_glob_in_set+0xe0>
  402048:	39 ef                	cmp    %ebp,%edi
  40204a:	8d 70 02             	lea    0x2(%eax),%esi
  40204d:	0f 8d 85 01 00 00    	jge    4021d8 <_glob_in_set+0x208>
  402053:	39 d7                	cmp    %edx,%edi
  402055:	8d 47 01             	lea    0x1(%edi),%eax
  402058:	75 14                	jne    40206e <_glob_in_set+0x9e>
  40205a:	e9 c1 00 00 00       	jmp    402120 <_glob_in_set+0x150>
  40205f:	90                   	nop
  402060:	83 c0 01             	add    $0x1,%eax
  402063:	8d 78 ff             	lea    -0x1(%eax),%edi
  402066:	39 fa                	cmp    %edi,%edx
  402068:	0f 84 b2 00 00 00    	je     402120 <_glob_in_set+0x150>
  40206e:	39 c5                	cmp    %eax,%ebp
  402070:	7f ee                	jg     402060 <_glob_in_set+0x90>
  402072:	39 c5                	cmp    %eax,%ebp
  402074:	7d 87                	jge    401ffd <_glob_in_set+0x2d>
  402076:	39 c2                	cmp    %eax,%edx
  402078:	74 15                	je     40208f <_glob_in_set+0xbf>
  40207a:	83 c5 01             	add    $0x1,%ebp
  40207d:	8d 76 00             	lea    0x0(%esi),%esi
  402080:	39 e8                	cmp    %ebp,%eax
  402082:	0f 84 75 ff ff ff    	je     401ffd <_glob_in_set+0x2d>
  402088:	83 e8 01             	sub    $0x1,%eax
  40208b:	39 c2                	cmp    %eax,%edx
  40208d:	75 f1                	jne    402080 <_glob_in_set+0xb0>
  40208f:	8b 0c 24             	mov    (%esp),%ecx
  402092:	83 e1 20             	and    $0x20,%ecx
  402095:	0f b6 06             	movzbl (%esi),%eax
  402098:	3c 5d                	cmp    $0x5d,%al
  40209a:	0f 84 a3 00 00 00    	je     402143 <_glob_in_set+0x173>
  4020a0:	3c 7f                	cmp    $0x7f,%al
  4020a2:	0f 84 bd 00 00 00    	je     402165 <_glob_in_set+0x195>
  4020a8:	83 c6 01             	add    $0x1,%esi
  4020ab:	84 c0                	test   %al,%al
  4020ad:	75 e6                	jne    402095 <_glob_in_set+0xc5>
  4020af:	90                   	nop
  4020b0:	83 c4 04             	add    $0x4,%esp
  4020b3:	31 c0                	xor    %eax,%eax
  4020b5:	5b                   	pop    %ebx
  4020b6:	5e                   	pop    %esi
  4020b7:	5f                   	pop    %edi
  4020b8:	5d                   	pop    %ebp
  4020b9:	c3                   	ret    
  4020ba:	8d b6 00 00 00 00    	lea    0x0(%esi),%esi
  4020c0:	39 d7                	cmp    %edx,%edi
  4020c2:	0f 84 b8 00 00 00    	je     402180 <_glob_in_set+0x1b0>
  4020c8:	0f b6 48 01          	movzbl 0x1(%eax),%ecx
  4020cc:	83 c0 01             	add    $0x1,%eax
  4020cf:	e9 4a ff ff ff       	jmp    40201e <_glob_in_set+0x4e>
  4020d4:	bf 2d 00 00 00       	mov    $0x2d,%edi
  4020d9:	89 f0                	mov    %esi,%eax
  4020db:	39 d7                	cmp    %edx,%edi
  4020dd:	b9 5d 00 00 00       	mov    $0x5d,%ecx
  4020e2:	0f 85 36 ff ff ff    	jne    40201e <_glob_in_set+0x4e>
  4020e8:	8b 14 24             	mov    (%esp),%edx
  4020eb:	83 e2 20             	and    $0x20,%edx
  4020ee:	eb 0a                	jmp    4020fa <_glob_in_set+0x12a>
  4020f0:	83 c0 01             	add    $0x1,%eax
  4020f3:	84 c9                	test   %cl,%cl
  4020f5:	74 b9                	je     4020b0 <_glob_in_set+0xe0>
  4020f7:	0f b6 08             	movzbl (%eax),%ecx
  4020fa:	80 f9 5d             	cmp    $0x5d,%cl
  4020fd:	0f 84 c2 00 00 00    	je     4021c5 <_glob_in_set+0x1f5>
  402103:	80 f9 7f             	cmp    $0x7f,%cl
  402106:	75 e8                	jne    4020f0 <_glob_in_set+0x120>
  402108:	85 d2                	test   %edx,%edx
  40210a:	0f 85 c0 00 00 00    	jne    4021d0 <_glob_in_set+0x200>
  402110:	0f b6 48 01          	movzbl 0x1(%eax),%ecx
  402114:	83 c0 01             	add    $0x1,%eax
  402117:	eb d7                	jmp    4020f0 <_glob_in_set+0x120>
  402119:	8d b4 26 00 00 00 00 	lea    0x0(%esi,%eiz,1),%esi
  402120:	8b 0c 24             	mov    (%esp),%ecx
  402123:	83 e1 20             	and    $0x20,%ecx
  402126:	0f b6 06             	movzbl (%esi),%eax
  402129:	3c 5d                	cmp    $0x5d,%al
  40212b:	74 16                	je     402143 <_glob_in_set+0x173>
  40212d:	3c 7f                	cmp    $0x7f,%al
  40212f:	74 1f                	je     402150 <_glob_in_set+0x180>
  402131:	83 c6 01             	add    $0x1,%esi
  402134:	84 c0                	test   %al,%al
  402136:	0f 84 74 ff ff ff    	je     4020b0 <_glob_in_set+0xe0>
  40213c:	0f b6 06             	movzbl (%esi),%eax
  40213f:	3c 5d                	cmp    $0x5d,%al
  402141:	75 ea                	jne    40212d <_glob_in_set+0x15d>
  402143:	83 c4 04             	add    $0x4,%esp
  402146:	5b                   	pop    %ebx
  402147:	8d 46 01             	lea    0x1(%esi),%eax
  40214a:	5e                   	pop    %esi
  40214b:	5f                   	pop    %edi
  40214c:	5d                   	pop    %ebp
  40214d:	c3                   	ret    
  40214e:	66 90                	xchg   %ax,%ax
  402150:	85 c9                	test   %ecx,%ecx
  402152:	75 0c                	jne    402160 <_glob_in_set+0x190>
  402154:	0f b6 46 01          	movzbl 0x1(%esi),%eax
  402158:	83 c6 01             	add    $0x1,%esi
  40215b:	eb d4                	jmp    402131 <_glob_in_set+0x161>
  40215d:	8d 76 00             	lea    0x0(%esi),%esi
  402160:	83 c6 01             	add    $0x1,%esi
  402163:	eb c1                	jmp    402126 <_glob_in_set+0x156>
  402165:	85 c9                	test   %ecx,%ecx
  402167:	75 0c                	jne    402175 <_glob_in_set+0x1a5>
  402169:	0f b6 46 01          	movzbl 0x1(%esi),%eax
  40216d:	83 c6 01             	add    $0x1,%esi
  402170:	e9 33 ff ff ff       	jmp    4020a8 <_glob_in_set+0xd8>
  402175:	83 c6 01             	add    $0x1,%esi
  402178:	e9 18 ff ff ff       	jmp    402095 <_glob_in_set+0xc5>
  40217d:	8d 76 00             	lea    0x0(%esi),%esi
  402180:	8b 0c 24             	mov    (%esp),%ecx
  402183:	83 c0 01             	add    $0x1,%eax
  402186:	83 e1 20             	and    $0x20,%ecx
  402189:	8d b4 26 00 00 00 00 	lea    0x0(%esi,%eiz,1),%esi
  402190:	0f b6 10             	movzbl (%eax),%edx
  402193:	80 fa 5d             	cmp    $0x5d,%dl
  402196:	74 2d                	je     4021c5 <_glob_in_set+0x1f5>
  402198:	80 fa 7f             	cmp    $0x7f,%dl
  40219b:	74 13                	je     4021b0 <_glob_in_set+0x1e0>
  40219d:	83 c0 01             	add    $0x1,%eax
  4021a0:	84 d2                	test   %dl,%dl
  4021a2:	75 ec                	jne    402190 <_glob_in_set+0x1c0>
  4021a4:	e9 07 ff ff ff       	jmp    4020b0 <_glob_in_set+0xe0>
  4021a9:	8d b4 26 00 00 00 00 	lea    0x0(%esi,%eiz,1),%esi
  4021b0:	85 c9                	test   %ecx,%ecx
  4021b2:	75 0c                	jne    4021c0 <_glob_in_set+0x1f0>
  4021b4:	0f b6 50 01          	movzbl 0x1(%eax),%edx
  4021b8:	83 c0 01             	add    $0x1,%eax
  4021bb:	eb e0                	jmp    40219d <_glob_in_set+0x1cd>
  4021bd:	8d 76 00             	lea    0x0(%esi),%esi
  4021c0:	83 c0 01             	add    $0x1,%eax
  4021c3:	eb cb                	jmp    402190 <_glob_in_set+0x1c0>
  4021c5:	83 c4 04             	add    $0x4,%esp
  4021c8:	83 c0 01             	add    $0x1,%eax
  4021cb:	5b                   	pop    %ebx
  4021cc:	5e                   	pop    %esi
  4021cd:	5f                   	pop    %edi
  4021ce:	5d                   	pop    %ebp
  4021cf:	c3                   	ret    
  4021d0:	83 c0 01             	add    $0x1,%eax
  4021d3:	e9 1f ff ff ff       	jmp    4020f7 <_glob_in_set+0x127>
  4021d8:	89 f8                	mov    %edi,%eax
  4021da:	e9 93 fe ff ff       	jmp    402072 <_glob_in_set+0xa2>
  4021df:	90                   	nop

004021e0 <_glob_initialise>:
  4021e0:	55                   	push   %ebp
  4021e1:	57                   	push   %edi
  4021e2:	56                   	push   %esi
  4021e3:	89 c6                	mov    %eax,%esi
  4021e5:	53                   	push   %ebx
  4021e6:	83 ec 1c             	sub    $0x1c,%esp
  4021e9:	85 c0                	test   %eax,%eax
  4021eb:	74 47                	je     402234 <_glob_initialise+0x54>
  4021ed:	8b 40 0c             	mov    0xc(%eax),%eax
  4021f0:	8d 78 01             	lea    0x1(%eax),%edi
  4021f3:	8d 2c bd 00 00 00 00 	lea    0x0(,%edi,4),%ebp
  4021fa:	89 2c 24             	mov    %ebp,(%esp)
  4021fd:	e8 7e 5d 00 00       	call   407f80 <_malloc>
  402202:	89 c3                	mov    %eax,%ebx
  402204:	85 db                	test   %ebx,%ebx
  402206:	89 46 08             	mov    %eax,0x8(%esi)
  402209:	b8 03 00 00 00       	mov    $0x3,%eax
  40220e:	74 26                	je     402236 <_glob_initialise+0x56>
  402210:	85 ff                	test   %edi,%edi
  402212:	89 fa                	mov    %edi,%edx
  402214:	c7 46 04 00 00 00 00 	movl   $0x0,0x4(%esi)
  40221b:	7e 17                	jle    402234 <_glob_initialise+0x54>
  40221d:	8d 4d fc             	lea    -0x4(%ebp),%ecx
  402220:	eb 03                	jmp    402225 <_glob_initialise+0x45>
  402222:	8b 5e 08             	mov    0x8(%esi),%ebx
  402225:	c7 04 0b 00 00 00 00 	movl   $0x0,(%ebx,%ecx,1)
  40222c:	83 e9 04             	sub    $0x4,%ecx
  40222f:	83 ea 01             	sub    $0x1,%edx
  402232:	75 ee                	jne    402222 <_glob_initialise+0x42>
  402234:	31 c0                	xor    %eax,%eax
  402236:	83 c4 1c             	add    $0x1c,%esp
  402239:	5b                   	pop    %ebx
  40223a:	5e                   	pop    %esi
  40223b:	5f                   	pop    %edi
  40223c:	5d                   	pop    %ebp
  40223d:	c3                   	ret    
  40223e:	66 90                	xchg   %ax,%ax

00402240 <_glob_strcmp>:
  402240:	55                   	push   %ebp
  402241:	57                   	push   %edi
  402242:	89 c7                	mov    %eax,%edi
  402244:	56                   	push   %esi
  402245:	53                   	push   %ebx
  402246:	83 ec 2c             	sub    $0x2c,%esp
  402249:	80 3a 2e             	cmpb   $0x2e,(%edx)
  40224c:	89 4c 24 10          	mov    %ecx,0x10(%esp)
  402250:	0f 84 5a 01 00 00    	je     4023b0 <_glob_strcmp+0x170>
  402256:	0f b6 08             	movzbl (%eax),%ecx
  402259:	8b 74 24 10          	mov    0x10(%esp),%esi
  40225d:	8d 6a 01             	lea    0x1(%edx),%ebp
  402260:	89 f0                	mov    %esi,%eax
  402262:	83 e0 20             	and    $0x20,%eax
  402265:	89 44 24 14          	mov    %eax,0x14(%esp)
  402269:	89 f0                	mov    %esi,%eax
  40226b:	25 00 40 00 00       	and    $0x4000,%eax
  402270:	89 44 24 18          	mov    %eax,0x18(%esp)
  402274:	0f be d1             	movsbl %cl,%edx
  402277:	85 d2                	test   %edx,%edx
  402279:	8d 75 ff             	lea    -0x1(%ebp),%esi
  40227c:	8d 47 01             	lea    0x1(%edi),%eax
  40227f:	0f 84 70 01 00 00    	je     4023f5 <_glob_strcmp+0x1b5>
  402285:	80 f9 3f             	cmp    $0x3f,%cl
  402288:	0f 84 e4 00 00 00    	je     402372 <_glob_strcmp+0x132>
  40228e:	80 f9 5b             	cmp    $0x5b,%cl
  402291:	0f 84 ab 00 00 00    	je     402342 <_glob_strcmp+0x102>
  402297:	80 f9 2a             	cmp    $0x2a,%cl
  40229a:	74 5c                	je     4022f8 <_glob_strcmp+0xb8>
  40229c:	8b 4c 24 14          	mov    0x14(%esp),%ecx
  4022a0:	85 c9                	test   %ecx,%ecx
  4022a2:	0f 84 d8 00 00 00    	je     402380 <_glob_strcmp+0x140>
  4022a8:	89 c7                	mov    %eax,%edi
  4022aa:	0f be 5d ff          	movsbl -0x1(%ebp),%ebx
  4022ae:	84 db                	test   %bl,%bl
  4022b0:	0f 84 92 01 00 00    	je     402448 <_glob_strcmp+0x208>
  4022b6:	8b 44 24 18          	mov    0x18(%esp),%eax
  4022ba:	85 c0                	test   %eax,%eax
  4022bc:	0f 85 de 00 00 00    	jne    4023a0 <_glob_strcmp+0x160>
  4022c2:	89 14 24             	mov    %edx,(%esp)
  4022c5:	89 54 24 1c          	mov    %edx,0x1c(%esp)
  4022c9:	e8 ba 5c 00 00       	call   407f88 <_tolower>
  4022ce:	89 1c 24             	mov    %ebx,(%esp)
  4022d1:	89 c6                	mov    %eax,%esi
  4022d3:	e8 b0 5c 00 00       	call   407f88 <_tolower>
  4022d8:	8b 54 24 1c          	mov    0x1c(%esp),%edx
  4022dc:	29 c6                	sub    %eax,%esi
  4022de:	85 f6                	test   %esi,%esi
  4022e0:	0f 84 81 00 00 00    	je     402367 <_glob_strcmp+0x127>
  4022e6:	89 d0                	mov    %edx,%eax
  4022e8:	29 d8                	sub    %ebx,%eax
  4022ea:	8d b6 00 00 00 00    	lea    0x0(%esi),%esi
  4022f0:	83 c4 2c             	add    $0x2c,%esp
  4022f3:	5b                   	pop    %ebx
  4022f4:	5e                   	pop    %esi
  4022f5:	5f                   	pop    %edi
  4022f6:	5d                   	pop    %ebp
  4022f7:	c3                   	ret    
  4022f8:	0f b6 57 01          	movzbl 0x1(%edi),%edx
  4022fc:	89 c3                	mov    %eax,%ebx
  4022fe:	80 fa 2a             	cmp    $0x2a,%dl
  402301:	75 0b                	jne    40230e <_glob_strcmp+0xce>
  402303:	83 c3 01             	add    $0x1,%ebx
  402306:	0f b6 13             	movzbl (%ebx),%edx
  402309:	80 fa 2a             	cmp    $0x2a,%dl
  40230c:	74 f5                	je     402303 <_glob_strcmp+0xc3>
  40230e:	31 c0                	xor    %eax,%eax
  402310:	84 d2                	test   %dl,%dl
  402312:	74 dc                	je     4022f0 <_glob_strcmp+0xb0>
  402314:	8b 7c 24 10          	mov    0x10(%esp),%edi
  402318:	81 cf 00 00 01 00    	or     $0x10000,%edi
  40231e:	eb 09                	jmp    402329 <_glob_strcmp+0xe9>
  402320:	83 c6 01             	add    $0x1,%esi
  402323:	80 7e ff 00          	cmpb   $0x0,-0x1(%esi)
  402327:	74 c7                	je     4022f0 <_glob_strcmp+0xb0>
  402329:	89 f9                	mov    %edi,%ecx
  40232b:	89 f2                	mov    %esi,%edx
  40232d:	89 d8                	mov    %ebx,%eax
  40232f:	e8 0c ff ff ff       	call   402240 <_glob_strcmp>
  402334:	85 c0                	test   %eax,%eax
  402336:	75 e8                	jne    402320 <_glob_strcmp+0xe0>
  402338:	83 c4 2c             	add    $0x2c,%esp
  40233b:	31 c0                	xor    %eax,%eax
  40233d:	5b                   	pop    %ebx
  40233e:	5e                   	pop    %esi
  40233f:	5f                   	pop    %edi
  402340:	5d                   	pop    %ebp
  402341:	c3                   	ret    
  402342:	0f be 55 ff          	movsbl -0x1(%ebp),%edx
  402346:	85 d2                	test   %edx,%edx
  402348:	0f 84 0b 01 00 00    	je     402459 <_glob_strcmp+0x219>
  40234e:	80 7f 01 21          	cmpb   $0x21,0x1(%edi)
  402352:	74 7c                	je     4023d0 <_glob_strcmp+0x190>
  402354:	8b 4c 24 10          	mov    0x10(%esp),%ecx
  402358:	e8 73 fc ff ff       	call   401fd0 <_glob_in_set>
  40235d:	85 c0                	test   %eax,%eax
  40235f:	89 c7                	mov    %eax,%edi
  402361:	0f 84 d7 00 00 00    	je     40243e <_glob_strcmp+0x1fe>
  402367:	0f b6 0f             	movzbl (%edi),%ecx
  40236a:	83 c5 01             	add    $0x1,%ebp
  40236d:	e9 02 ff ff ff       	jmp    402274 <_glob_strcmp+0x34>
  402372:	80 7d ff 00          	cmpb   $0x0,-0x1(%ebp)
  402376:	0f 84 d3 00 00 00    	je     40244f <_glob_strcmp+0x20f>
  40237c:	89 c7                	mov    %eax,%edi
  40237e:	eb e7                	jmp    402367 <_glob_strcmp+0x127>
  402380:	83 fa 7f             	cmp    $0x7f,%edx
  402383:	0f 85 1f ff ff ff    	jne    4022a8 <_glob_strcmp+0x68>
  402389:	0f be 57 01          	movsbl 0x1(%edi),%edx
  40238d:	83 c7 02             	add    $0x2,%edi
  402390:	85 d2                	test   %edx,%edx
  402392:	0f 85 12 ff ff ff    	jne    4022aa <_glob_strcmp+0x6a>
  402398:	e9 0b ff ff ff       	jmp    4022a8 <_glob_strcmp+0x68>
  40239d:	8d 76 00             	lea    0x0(%esi),%esi
  4023a0:	89 d6                	mov    %edx,%esi
  4023a2:	29 de                	sub    %ebx,%esi
  4023a4:	e9 35 ff ff ff       	jmp    4022de <_glob_strcmp+0x9e>
  4023a9:	8d b4 26 00 00 00 00 	lea    0x0(%esi,%eiz,1),%esi
  4023b0:	0f be 00             	movsbl (%eax),%eax
  4023b3:	3c 2e                	cmp    $0x2e,%al
  4023b5:	74 32                	je     4023e9 <_glob_strcmp+0x1a9>
  4023b7:	89 c1                	mov    %eax,%ecx
  4023b9:	83 e8 2e             	sub    $0x2e,%eax
  4023bc:	f7 44 24 10 00 00 01 	testl  $0x10000,0x10(%esp)
  4023c3:	00 
  4023c4:	0f 85 8f fe ff ff    	jne    402259 <_glob_strcmp+0x19>
  4023ca:	e9 21 ff ff ff       	jmp    4022f0 <_glob_strcmp+0xb0>
  4023cf:	90                   	nop
  4023d0:	8b 4c 24 10          	mov    0x10(%esp),%ecx
  4023d4:	8d 5f 02             	lea    0x2(%edi),%ebx
  4023d7:	89 d8                	mov    %ebx,%eax
  4023d9:	e8 f2 fb ff ff       	call   401fd0 <_glob_in_set>
  4023de:	85 c0                	test   %eax,%eax
  4023e0:	74 1d                	je     4023ff <_glob_strcmp+0x1bf>
  4023e2:	89 df                	mov    %ebx,%edi
  4023e4:	e9 7e ff ff ff       	jmp    402367 <_glob_strcmp+0x127>
  4023e9:	b9 2e 00 00 00       	mov    $0x2e,%ecx
  4023ee:	66 90                	xchg   %ax,%ax
  4023f0:	e9 64 fe ff ff       	jmp    402259 <_glob_strcmp+0x19>
  4023f5:	0f be 06             	movsbl (%esi),%eax
  4023f8:	f7 d8                	neg    %eax
  4023fa:	e9 f1 fe ff ff       	jmp    4022f0 <_glob_strcmp+0xb0>
  4023ff:	0f b6 47 02          	movzbl 0x2(%edi),%eax
  402403:	8b 54 24 14          	mov    0x14(%esp),%edx
  402407:	3c 5d                	cmp    $0x5d,%al
  402409:	75 0f                	jne    40241a <_glob_strcmp+0x1da>
  40240b:	eb 56                	jmp    402463 <_glob_strcmp+0x223>
  40240d:	8d 76 00             	lea    0x0(%esi),%esi
  402410:	83 c3 01             	add    $0x1,%ebx
  402413:	84 c0                	test   %al,%al
  402415:	74 27                	je     40243e <_glob_strcmp+0x1fe>
  402417:	0f b6 03             	movzbl (%ebx),%eax
  40241a:	3c 5d                	cmp    $0x5d,%al
  40241c:	74 16                	je     402434 <_glob_strcmp+0x1f4>
  40241e:	3c 7f                	cmp    $0x7f,%al
  402420:	75 ee                	jne    402410 <_glob_strcmp+0x1d0>
  402422:	85 d2                	test   %edx,%edx
  402424:	75 09                	jne    40242f <_glob_strcmp+0x1ef>
  402426:	0f b6 43 01          	movzbl 0x1(%ebx),%eax
  40242a:	83 c3 01             	add    $0x1,%ebx
  40242d:	eb e1                	jmp    402410 <_glob_strcmp+0x1d0>
  40242f:	83 c3 01             	add    $0x1,%ebx
  402432:	eb e3                	jmp    402417 <_glob_strcmp+0x1d7>
  402434:	83 c3 01             	add    $0x1,%ebx
  402437:	89 df                	mov    %ebx,%edi
  402439:	e9 29 ff ff ff       	jmp    402367 <_glob_strcmp+0x127>
  40243e:	b8 5d 00 00 00       	mov    $0x5d,%eax
  402443:	e9 a8 fe ff ff       	jmp    4022f0 <_glob_strcmp+0xb0>
  402448:	31 db                	xor    %ebx,%ebx
  40244a:	e9 97 fe ff ff       	jmp    4022e6 <_glob_strcmp+0xa6>
  40244f:	b8 3f 00 00 00       	mov    $0x3f,%eax
  402454:	e9 97 fe ff ff       	jmp    4022f0 <_glob_strcmp+0xb0>
  402459:	b8 5b 00 00 00       	mov    $0x5b,%eax
  40245e:	e9 8d fe ff ff       	jmp    4022f0 <_glob_strcmp+0xb0>
  402463:	8d 5f 03             	lea    0x3(%edi),%ebx
  402466:	0f b6 47 03          	movzbl 0x3(%edi),%eax
  40246a:	8b 54 24 14          	mov    0x14(%esp),%edx
  40246e:	eb aa                	jmp    40241a <_glob_strcmp+0x1da>

00402470 <_glob_registry.part.1>:
  402470:	57                   	push   %edi
  402471:	89 c7                	mov    %eax,%edi
  402473:	56                   	push   %esi
  402474:	53                   	push   %ebx
  402475:	83 ec 10             	sub    $0x10,%esp
  402478:	8b 40 04             	mov    0x4(%eax),%eax
  40247b:	8b 4f 0c             	mov    0xc(%edi),%ecx
  40247e:	85 c0                	test   %eax,%eax
  402480:	8d 70 ff             	lea    -0x1(%eax),%esi
  402483:	8d 1c 8d 00 00 00 00 	lea    0x0(,%ecx,4),%ebx
  40248a:	7e 1d                	jle    4024a9 <_glob_registry.part.1+0x39>
  40248c:	8d 74 26 00          	lea    0x0(%esi,%eiz,1),%esi
  402490:	8b 57 08             	mov    0x8(%edi),%edx
  402493:	83 ee 01             	sub    $0x1,%esi
  402496:	8b 14 1a             	mov    (%edx,%ebx,1),%edx
  402499:	83 c3 04             	add    $0x4,%ebx
  40249c:	89 14 24             	mov    %edx,(%esp)
  40249f:	e8 d4 5a 00 00       	call   407f78 <_free>
  4024a4:	83 fe ff             	cmp    $0xffffffff,%esi
  4024a7:	75 e7                	jne    402490 <_glob_registry.part.1+0x20>
  4024a9:	8b 47 08             	mov    0x8(%edi),%eax
  4024ac:	89 04 24             	mov    %eax,(%esp)
  4024af:	e8 c4 5a 00 00       	call   407f78 <_free>
  4024b4:	83 c4 10             	add    $0x10,%esp
  4024b7:	31 c0                	xor    %eax,%eax
  4024b9:	5b                   	pop    %ebx
  4024ba:	5e                   	pop    %esi
  4024bb:	5f                   	pop    %edi
  4024bc:	c3                   	ret    
  4024bd:	8d 76 00             	lea    0x0(%esi),%esi

004024c0 <_glob_store_entry.part.2>:
  4024c0:	57                   	push   %edi
  4024c1:	56                   	push   %esi
  4024c2:	89 c6                	mov    %eax,%esi
  4024c4:	53                   	push   %ebx
  4024c5:	89 d3                	mov    %edx,%ebx
  4024c7:	83 ec 10             	sub    $0x10,%esp
  4024ca:	8b 52 04             	mov    0x4(%edx),%edx
  4024cd:	03 53 0c             	add    0xc(%ebx),%edx
  4024d0:	8d 04 95 08 00 00 00 	lea    0x8(,%edx,4),%eax
  4024d7:	89 44 24 04          	mov    %eax,0x4(%esp)
  4024db:	8b 43 08             	mov    0x8(%ebx),%eax
  4024de:	89 04 24             	mov    %eax,(%esp)
  4024e1:	e8 aa 5a 00 00       	call   407f90 <_realloc>
  4024e6:	85 c0                	test   %eax,%eax
  4024e8:	89 c2                	mov    %eax,%edx
  4024ea:	74 29                	je     402515 <_glob_store_entry.part.2+0x55>
  4024ec:	8b 7b 04             	mov    0x4(%ebx),%edi
  4024ef:	89 43 08             	mov    %eax,0x8(%ebx)
  4024f2:	8b 43 0c             	mov    0xc(%ebx),%eax
  4024f5:	8d 4f 01             	lea    0x1(%edi),%ecx
  4024f8:	01 c7                	add    %eax,%edi
  4024fa:	01 c8                	add    %ecx,%eax
  4024fc:	89 4b 04             	mov    %ecx,0x4(%ebx)
  4024ff:	89 34 ba             	mov    %esi,(%edx,%edi,4)
  402502:	8b 53 08             	mov    0x8(%ebx),%edx
  402505:	c7 04 82 00 00 00 00 	movl   $0x0,(%edx,%eax,4)
  40250c:	83 c4 10             	add    $0x10,%esp
  40250f:	31 c0                	xor    %eax,%eax
  402511:	5b                   	pop    %ebx
  402512:	5e                   	pop    %esi
  402513:	5f                   	pop    %edi
  402514:	c3                   	ret    
  402515:	83 c4 10             	add    $0x10,%esp
  402518:	b8 01 00 00 00       	mov    $0x1,%eax
  40251d:	5b                   	pop    %ebx
  40251e:	5e                   	pop    %esi
  40251f:	5f                   	pop    %edi
  402520:	c3                   	ret    
  402521:	eb 0d                	jmp    402530 <_glob_store_entry>
  402523:	90                   	nop
  402524:	90                   	nop
  402525:	90                   	nop
  402526:	90                   	nop
  402527:	90                   	nop
  402528:	90                   	nop
  402529:	90                   	nop
  40252a:	90                   	nop
  40252b:	90                   	nop
  40252c:	90                   	nop
  40252d:	90                   	nop
  40252e:	90                   	nop
  40252f:	90                   	nop

00402530 <_glob_store_entry>:
  402530:	85 c0                	test   %eax,%eax
  402532:	75 0c                	jne    402540 <_glob_store_entry+0x10>
  402534:	b8 01 00 00 00       	mov    $0x1,%eax
  402539:	c3                   	ret    
  40253a:	8d b6 00 00 00 00    	lea    0x0(%esi),%esi
  402540:	85 d2                	test   %edx,%edx
  402542:	74 f0                	je     402534 <_glob_store_entry+0x4>
  402544:	e9 77 ff ff ff       	jmp    4024c0 <_glob_store_entry.part.2>
  402549:	8d b4 26 00 00 00 00 	lea    0x0(%esi,%eiz,1),%esi

00402550 <_glob_store_collated_entries>:
  402550:	56                   	push   %esi
  402551:	89 d6                	mov    %edx,%esi
  402553:	53                   	push   %ebx
  402554:	89 c3                	mov    %eax,%ebx
  402556:	83 ec 14             	sub    $0x14,%esp
  402559:	8b 00                	mov    (%eax),%eax
  40255b:	85 c0                	test   %eax,%eax
  40255d:	74 05                	je     402564 <_glob_store_collated_entries+0x14>
  40255f:	e8 ec ff ff ff       	call   402550 <_glob_store_collated_entries>
  402564:	8b 43 08             	mov    0x8(%ebx),%eax
  402567:	89 f2                	mov    %esi,%edx
  402569:	e8 c2 ff ff ff       	call   402530 <_glob_store_entry>
  40256e:	8b 43 04             	mov    0x4(%ebx),%eax
  402571:	85 c0                	test   %eax,%eax
  402573:	74 07                	je     40257c <_glob_store_collated_entries+0x2c>
  402575:	89 f2                	mov    %esi,%edx
  402577:	e8 d4 ff ff ff       	call   402550 <_glob_store_collated_entries>
  40257c:	89 1c 24             	mov    %ebx,(%esp)
  40257f:	e8 f4 59 00 00       	call   407f78 <_free>
  402584:	83 c4 14             	add    $0x14,%esp
  402587:	5b                   	pop    %ebx
  402588:	5e                   	pop    %esi
  402589:	c3                   	ret    
  40258a:	8d b6 00 00 00 00    	lea    0x0(%esi),%esi

00402590 <_glob_match>:
  402590:	55                   	push   %ebp
  402591:	89 e5                	mov    %esp,%ebp
  402593:	57                   	push   %edi
  402594:	56                   	push   %esi
  402595:	53                   	push   %ebx
  402596:	89 c3                	mov    %eax,%ebx
  402598:	83 ec 6c             	sub    $0x6c,%esp
  40259b:	89 55 cc             	mov    %edx,-0x34(%ebp)
  40259e:	89 4d a4             	mov    %ecx,-0x5c(%ebp)
  4025a1:	89 04 24             	mov    %eax,(%esp)
  4025a4:	e8 97 59 00 00       	call   407f40 <_strlen>
  4025a9:	8d 50 01             	lea    0x1(%eax),%edx
  4025ac:	83 c0 10             	add    $0x10,%eax
  4025af:	83 e0 f0             	and    $0xfffffff0,%eax
  4025b2:	e8 59 f9 ff ff       	call   401f10 <___chkstk_ms>
  4025b7:	29 c4                	sub    %eax,%esp
  4025b9:	8d 44 24 0c          	lea    0xc(%esp),%eax
  4025bd:	89 54 24 08          	mov    %edx,0x8(%esp)
  4025c1:	89 5c 24 04          	mov    %ebx,0x4(%esp)
  4025c5:	89 04 24             	mov    %eax,(%esp)
  4025c8:	e8 9b 59 00 00       	call   407f68 <_memcpy>
  4025cd:	89 04 24             	mov    %eax,(%esp)
  4025d0:	e8 4b 06 00 00       	call   402c20 <___mingw_dirname>
  4025d5:	c7 45 e4 00 00 00 00 	movl   $0x0,-0x1c(%ebp)
  4025dc:	89 45 b8             	mov    %eax,-0x48(%ebp)
  4025df:	8d 45 d8             	lea    -0x28(%ebp),%eax
  4025e2:	e8 f9 fb ff ff       	call   4021e0 <_glob_initialise>
  4025e7:	85 c0                	test   %eax,%eax
  4025e9:	74 08                	je     4025f3 <_glob_match+0x63>
  4025eb:	8d 65 f4             	lea    -0xc(%ebp),%esp
  4025ee:	5b                   	pop    %ebx
  4025ef:	5e                   	pop    %esi
  4025f0:	5f                   	pop    %edi
  4025f1:	5d                   	pop    %ebp
  4025f2:	c3                   	ret    
  4025f3:	8b 55 cc             	mov    -0x34(%ebp),%edx
  4025f6:	8b 45 b8             	mov    -0x48(%ebp),%eax
  4025f9:	e8 42 f9 ff ff       	call   401f40 <_is_glob_pattern>
  4025fe:	85 c0                	test   %eax,%eax
  402600:	0f 84 5a 02 00 00    	je     402860 <_glob_match+0x2d0>
  402606:	8b 55 cc             	mov    -0x34(%ebp),%edx
  402609:	8d 45 d8             	lea    -0x28(%ebp),%eax
  40260c:	89 04 24             	mov    %eax,(%esp)
  40260f:	8b 4d a4             	mov    -0x5c(%ebp),%ecx
  402612:	8b 45 b8             	mov    -0x48(%ebp),%eax
  402615:	80 ce 80             	or     $0x80,%dh
  402618:	e8 73 ff ff ff       	call   402590 <_glob_match>
  40261d:	85 c0                	test   %eax,%eax
  40261f:	75 ca                	jne    4025eb <_glob_match+0x5b>
  402621:	0f b6 43 01          	movzbl 0x1(%ebx),%eax
  402625:	3c 5c                	cmp    $0x5c,%al
  402627:	0f 84 5b 03 00 00    	je     402988 <_glob_match+0x3f8>
  40262d:	3c 2f                	cmp    $0x2f,%al
  40262f:	0f 84 53 03 00 00    	je     402988 <_glob_match+0x3f8>
  402635:	8b 75 b8             	mov    -0x48(%ebp),%esi
  402638:	bf 14 a1 40 00       	mov    $0x40a114,%edi
  40263d:	b9 02 00 00 00       	mov    $0x2,%ecx
  402642:	f3 a6                	repz cmpsb %es:(%edi),%ds:(%esi)
  402644:	0f 85 3e 03 00 00    	jne    402988 <_glob_match+0x3f8>
  40264a:	c6 45 a3 5c          	movb   $0x5c,-0x5d(%ebp)
  40264e:	f6 45 cc 10          	testb  $0x10,-0x34(%ebp)
  402652:	89 5d c0             	mov    %ebx,-0x40(%ebp)
  402655:	c7 45 b8 00 00 00 00 	movl   $0x0,-0x48(%ebp)
  40265c:	0f 85 33 04 00 00    	jne    402a95 <_glob_match+0x505>
  402662:	8b 45 e0             	mov    -0x20(%ebp),%eax
  402665:	89 45 c8             	mov    %eax,-0x38(%ebp)
  402668:	8b 00                	mov    (%eax),%eax
  40266a:	85 c0                	test   %eax,%eax
  40266c:	0f 84 71 04 00 00    	je     402ae3 <_glob_match+0x553>
  402672:	8b 4d cc             	mov    -0x34(%ebp),%ecx
  402675:	c7 45 c4 02 00 00 00 	movl   $0x2,-0x3c(%ebp)
  40267c:	89 cf                	mov    %ecx,%edi
  40267e:	83 e7 04             	and    $0x4,%edi
  402681:	89 7d 98             	mov    %edi,-0x68(%ebp)
  402684:	89 cf                	mov    %ecx,%edi
  402686:	81 e7 00 80 00 00    	and    $0x8000,%edi
  40268c:	89 7d d0             	mov    %edi,-0x30(%ebp)
  40268f:	90                   	nop
  402690:	83 7d c4 01          	cmpl   $0x1,-0x3c(%ebp)
  402694:	0f 84 58 02 00 00    	je     4028f2 <_glob_match+0x362>
  40269a:	89 04 24             	mov    %eax,(%esp)
  40269d:	e8 ee 0a 00 00       	call   403190 <___mingw_opendir>
  4026a2:	85 c0                	test   %eax,%eax
  4026a4:	89 45 d4             	mov    %eax,-0x2c(%ebp)
  4026a7:	0f 84 76 03 00 00    	je     402a23 <_glob_match+0x493>
  4026ad:	8b 45 b8             	mov    -0x48(%ebp),%eax
  4026b0:	85 c0                	test   %eax,%eax
  4026b2:	0f 84 bd 03 00 00    	je     402a75 <_glob_match+0x4e5>
  4026b8:	8b 45 c8             	mov    -0x38(%ebp),%eax
  4026bb:	8b 00                	mov    (%eax),%eax
  4026bd:	89 04 24             	mov    %eax,(%esp)
  4026c0:	e8 7b 58 00 00       	call   407f40 <_strlen>
  4026c5:	89 45 b4             	mov    %eax,-0x4c(%ebp)
  4026c8:	8b 45 cc             	mov    -0x34(%ebp),%eax
  4026cb:	c7 45 bc 00 00 00 00 	movl   $0x0,-0x44(%ebp)
  4026d2:	83 e0 40             	and    $0x40,%eax
  4026d5:	89 45 a8             	mov    %eax,-0x58(%ebp)
  4026d8:	8b 45 d4             	mov    -0x2c(%ebp),%eax
  4026db:	89 04 24             	mov    %eax,(%esp)
  4026de:	e8 4d 0c 00 00       	call   403330 <___mingw_readdir>
  4026e3:	85 c0                	test   %eax,%eax
  4026e5:	89 c6                	mov    %eax,%esi
  4026e7:	0f 84 e8 01 00 00    	je     4028d5 <_glob_match+0x345>
  4026ed:	8b 45 d0             	mov    -0x30(%ebp),%eax
  4026f0:	85 c0                	test   %eax,%eax
  4026f2:	74 06                	je     4026fa <_glob_match+0x16a>
  4026f4:	83 7e 08 10          	cmpl   $0x10,0x8(%esi)
  4026f8:	75 de                	jne    4026d8 <_glob_match+0x148>
  4026fa:	8b 4d cc             	mov    -0x34(%ebp),%ecx
  4026fd:	8d 5e 0c             	lea    0xc(%esi),%ebx
  402700:	8b 45 c0             	mov    -0x40(%ebp),%eax
  402703:	89 da                	mov    %ebx,%edx
  402705:	e8 36 fb ff ff       	call   402240 <_glob_strcmp>
  40270a:	85 c0                	test   %eax,%eax
  40270c:	75 ca                	jne    4026d8 <_glob_match+0x148>
  40270e:	0f b7 56 06          	movzwl 0x6(%esi),%edx
  402712:	8b 4d b4             	mov    -0x4c(%ebp),%ecx
  402715:	89 65 b0             	mov    %esp,-0x50(%ebp)
  402718:	8d 44 11 11          	lea    0x11(%ecx,%edx,1),%eax
  40271c:	83 e0 f0             	and    $0xfffffff0,%eax
  40271f:	e8 ec f7 ff ff       	call   401f10 <___chkstk_ms>
  402724:	29 c4                	sub    %eax,%esp
  402726:	31 c0                	xor    %eax,%eax
  402728:	8d 7c 24 0c          	lea    0xc(%esp),%edi
  40272c:	85 c9                	test   %ecx,%ecx
  40272e:	89 7d ac             	mov    %edi,-0x54(%ebp)
  402731:	0f 85 ed 01 00 00    	jne    402924 <_glob_match+0x394>
  402737:	83 c2 01             	add    $0x1,%edx
  40273a:	01 f8                	add    %edi,%eax
  40273c:	89 54 24 08          	mov    %edx,0x8(%esp)
  402740:	89 5c 24 04          	mov    %ebx,0x4(%esp)
  402744:	89 e3                	mov    %esp,%ebx
  402746:	89 04 24             	mov    %eax,(%esp)
  402749:	e8 1a 58 00 00       	call   407f68 <_memcpy>
  40274e:	89 3c 24             	mov    %edi,(%esp)
  402751:	e8 ea 57 00 00       	call   407f40 <_strlen>
  402756:	83 c0 10             	add    $0x10,%eax
  402759:	83 e0 f0             	and    $0xfffffff0,%eax
  40275c:	e8 af f7 ff ff       	call   401f10 <___chkstk_ms>
  402761:	8b 75 ac             	mov    -0x54(%ebp),%esi
  402764:	29 c4                	sub    %eax,%esp
  402766:	8d 4c 24 0c          	lea    0xc(%esp),%ecx
  40276a:	89 ca                	mov    %ecx,%edx
  40276c:	eb 0f                	jmp    40277d <_glob_match+0x1ed>
  40276e:	66 90                	xchg   %ax,%ax
  402770:	83 c2 01             	add    $0x1,%edx
  402773:	83 c6 01             	add    $0x1,%esi
  402776:	84 c0                	test   %al,%al
  402778:	88 42 ff             	mov    %al,-0x1(%edx)
  40277b:	74 1b                	je     402798 <_glob_match+0x208>
  40277d:	0f b6 06             	movzbl (%esi),%eax
  402780:	3c 7f                	cmp    $0x7f,%al
  402782:	75 ec                	jne    402770 <_glob_match+0x1e0>
  402784:	0f b6 46 01          	movzbl 0x1(%esi),%eax
  402788:	83 c6 01             	add    $0x1,%esi
  40278b:	83 c2 01             	add    $0x1,%edx
  40278e:	83 c6 01             	add    $0x1,%esi
  402791:	84 c0                	test   %al,%al
  402793:	88 42 ff             	mov    %al,-0x1(%edx)
  402796:	75 e5                	jne    40277d <_glob_match+0x1ed>
  402798:	89 0c 24             	mov    %ecx,(%esp)
  40279b:	e8 60 5b 00 00       	call   408300 <_strdup>
  4027a0:	89 dc                	mov    %ebx,%esp
  4027a2:	85 c0                	test   %eax,%eax
  4027a4:	89 c6                	mov    %eax,%esi
  4027a6:	0f 84 c6 01 00 00    	je     402972 <_glob_match+0x3e2>
  4027ac:	31 c0                	xor    %eax,%eax
  4027ae:	83 7d c4 02          	cmpl   $0x2,-0x3c(%ebp)
  4027b2:	0f 94 c0             	sete   %al
  4027b5:	83 e8 01             	sub    $0x1,%eax
  4027b8:	21 45 c4             	and    %eax,-0x3c(%ebp)
  4027bb:	8b 45 a8             	mov    -0x58(%ebp),%eax
  4027be:	85 c0                	test   %eax,%eax
  4027c0:	0f 85 9d 01 00 00    	jne    402963 <_glob_match+0x3d3>
  4027c6:	8b 5d bc             	mov    -0x44(%ebp),%ebx
  4027c9:	85 db                	test   %ebx,%ebx
  4027cb:	0f 84 bb 02 00 00    	je     402a8c <_glob_match+0x4fc>
  4027d1:	8b 7d cc             	mov    -0x34(%ebp),%edi
  4027d4:	81 e7 00 40 00 00    	and    $0x4000,%edi
  4027da:	eb 18                	jmp    4027f4 <_glob_match+0x264>
  4027dc:	8d 74 26 00          	lea    0x0(%esi,%eiz,1),%esi
  4027e0:	e8 b3 57 00 00       	call   407f98 <_strcoll>
  4027e5:	8b 0b                	mov    (%ebx),%ecx
  4027e7:	8b 53 04             	mov    0x4(%ebx),%edx
  4027ea:	85 c0                	test   %eax,%eax
  4027ec:	7e 22                	jle    402810 <_glob_match+0x280>
  4027ee:	85 d2                	test   %edx,%edx
  4027f0:	74 24                	je     402816 <_glob_match+0x286>
  4027f2:	89 d3                	mov    %edx,%ebx
  4027f4:	8b 43 08             	mov    0x8(%ebx),%eax
  4027f7:	85 ff                	test   %edi,%edi
  4027f9:	89 34 24             	mov    %esi,(%esp)
  4027fc:	89 44 24 04          	mov    %eax,0x4(%esp)
  402800:	75 de                	jne    4027e0 <_glob_match+0x250>
  402802:	e8 01 5b 00 00       	call   408308 <_stricoll>
  402807:	8b 0b                	mov    (%ebx),%ecx
  402809:	8b 53 04             	mov    0x4(%ebx),%edx
  40280c:	85 c0                	test   %eax,%eax
  40280e:	7f de                	jg     4027ee <_glob_match+0x25e>
  402810:	89 ca                	mov    %ecx,%edx
  402812:	85 d2                	test   %edx,%edx
  402814:	75 dc                	jne    4027f2 <_glob_match+0x262>
  402816:	89 c1                	mov    %eax,%ecx
  402818:	89 4d ac             	mov    %ecx,-0x54(%ebp)
  40281b:	c7 04 24 0c 00 00 00 	movl   $0xc,(%esp)
  402822:	e8 59 57 00 00       	call   407f80 <_malloc>
  402827:	85 c0                	test   %eax,%eax
  402829:	74 22                	je     40284d <_glob_match+0x2bd>
  40282b:	85 db                	test   %ebx,%ebx
  40282d:	89 70 08             	mov    %esi,0x8(%eax)
  402830:	c7 40 04 00 00 00 00 	movl   $0x0,0x4(%eax)
  402837:	c7 00 00 00 00 00    	movl   $0x0,(%eax)
  40283d:	74 0e                	je     40284d <_glob_match+0x2bd>
  40283f:	8b 4d ac             	mov    -0x54(%ebp),%ecx
  402842:	85 c9                	test   %ecx,%ecx
  402844:	0f 8e 16 02 00 00    	jle    402a60 <_glob_match+0x4d0>
  40284a:	89 43 04             	mov    %eax,0x4(%ebx)
  40284d:	8b 7d bc             	mov    -0x44(%ebp),%edi
  402850:	85 ff                	test   %edi,%edi
  402852:	0f 84 15 02 00 00    	je     402a6d <_glob_match+0x4dd>
  402858:	8b 65 b0             	mov    -0x50(%ebp),%esp
  40285b:	e9 78 fe ff ff       	jmp    4026d8 <_glob_match+0x148>
  402860:	8b 45 b8             	mov    -0x48(%ebp),%eax
  402863:	89 e6                	mov    %esp,%esi
  402865:	89 04 24             	mov    %eax,(%esp)
  402868:	e8 d3 56 00 00       	call   407f40 <_strlen>
  40286d:	83 c0 10             	add    $0x10,%eax
  402870:	83 e0 f0             	and    $0xfffffff0,%eax
  402873:	e8 98 f6 ff ff       	call   401f10 <___chkstk_ms>
  402878:	8b 55 b8             	mov    -0x48(%ebp),%edx
  40287b:	29 c4                	sub    %eax,%esp
  40287d:	8d 7c 24 0c          	lea    0xc(%esp),%edi
  402881:	89 f9                	mov    %edi,%ecx
  402883:	eb 0d                	jmp    402892 <_glob_match+0x302>
  402885:	83 c1 01             	add    $0x1,%ecx
  402888:	83 c2 01             	add    $0x1,%edx
  40288b:	84 c0                	test   %al,%al
  40288d:	88 41 ff             	mov    %al,-0x1(%ecx)
  402890:	74 1b                	je     4028ad <_glob_match+0x31d>
  402892:	0f b6 02             	movzbl (%edx),%eax
  402895:	3c 7f                	cmp    $0x7f,%al
  402897:	75 ec                	jne    402885 <_glob_match+0x2f5>
  402899:	0f b6 42 01          	movzbl 0x1(%edx),%eax
  40289d:	83 c2 01             	add    $0x1,%edx
  4028a0:	83 c1 01             	add    $0x1,%ecx
  4028a3:	83 c2 01             	add    $0x1,%edx
  4028a6:	84 c0                	test   %al,%al
  4028a8:	88 41 ff             	mov    %al,-0x1(%ecx)
  4028ab:	75 e5                	jne    402892 <_glob_match+0x302>
  4028ad:	89 3c 24             	mov    %edi,(%esp)
  4028b0:	e8 4b 5a 00 00       	call   408300 <_strdup>
  4028b5:	89 f4                	mov    %esi,%esp
  4028b7:	89 c1                	mov    %eax,%ecx
  4028b9:	b8 01 00 00 00       	mov    $0x1,%eax
  4028be:	85 c9                	test   %ecx,%ecx
  4028c0:	0f 84 25 fd ff ff    	je     4025eb <_glob_match+0x5b>
  4028c6:	8d 55 d8             	lea    -0x28(%ebp),%edx
  4028c9:	89 c8                	mov    %ecx,%eax
  4028cb:	e8 f0 fb ff ff       	call   4024c0 <_glob_store_entry.part.2>
  4028d0:	e9 48 fd ff ff       	jmp    40261d <_glob_match+0x8d>
  4028d5:	8b 45 d4             	mov    -0x2c(%ebp),%eax
  4028d8:	89 04 24             	mov    %eax,(%esp)
  4028db:	e8 a0 0a 00 00       	call   403380 <___mingw_closedir>
  4028e0:	8b 75 bc             	mov    -0x44(%ebp),%esi
  4028e3:	85 f6                	test   %esi,%esi
  4028e5:	74 0b                	je     4028f2 <_glob_match+0x362>
  4028e7:	8b 55 08             	mov    0x8(%ebp),%edx
  4028ea:	8b 45 bc             	mov    -0x44(%ebp),%eax
  4028ed:	e8 5e fc ff ff       	call   402550 <_glob_store_collated_entries>
  4028f2:	83 45 c8 04          	addl   $0x4,-0x38(%ebp)
  4028f6:	8b 7d c8             	mov    -0x38(%ebp),%edi
  4028f9:	8b 47 fc             	mov    -0x4(%edi),%eax
  4028fc:	89 04 24             	mov    %eax,(%esp)
  4028ff:	e8 74 56 00 00       	call   407f78 <_free>
  402904:	8b 07                	mov    (%edi),%eax
  402906:	85 c0                	test   %eax,%eax
  402908:	0f 85 82 fd ff ff    	jne    402690 <_glob_match+0x100>
  40290e:	8b 45 e0             	mov    -0x20(%ebp),%eax
  402911:	89 04 24             	mov    %eax,(%esp)
  402914:	e8 5f 56 00 00       	call   407f78 <_free>
  402919:	8b 45 c4             	mov    -0x3c(%ebp),%eax
  40291c:	8d 65 f4             	lea    -0xc(%ebp),%esp
  40291f:	5b                   	pop    %ebx
  402920:	5e                   	pop    %esi
  402921:	5f                   	pop    %edi
  402922:	5d                   	pop    %ebp
  402923:	c3                   	ret    
  402924:	8b 45 c8             	mov    -0x38(%ebp),%eax
  402927:	8b 75 b4             	mov    -0x4c(%ebp),%esi
  40292a:	89 55 9c             	mov    %edx,-0x64(%ebp)
  40292d:	8b 00                	mov    (%eax),%eax
  40292f:	89 74 24 08          	mov    %esi,0x8(%esp)
  402933:	89 3c 24             	mov    %edi,(%esp)
  402936:	89 44 24 04          	mov    %eax,0x4(%esp)
  40293a:	e8 29 56 00 00       	call   407f68 <_memcpy>
  40293f:	0f b6 44 34 0b       	movzbl 0xb(%esp,%esi,1),%eax
  402944:	8b 55 9c             	mov    -0x64(%ebp),%edx
  402947:	3c 5c                	cmp    $0x5c,%al
  402949:	74 35                	je     402980 <_glob_match+0x3f0>
  40294b:	3c 2f                	cmp    $0x2f,%al
  40294d:	74 31                	je     402980 <_glob_match+0x3f0>
  40294f:	8b 75 b4             	mov    -0x4c(%ebp),%esi
  402952:	0f b6 4d a3          	movzbl -0x5d(%ebp),%ecx
  402956:	89 f0                	mov    %esi,%eax
  402958:	83 c0 01             	add    $0x1,%eax
  40295b:	88 0c 37             	mov    %cl,(%edi,%esi,1)
  40295e:	e9 d4 fd ff ff       	jmp    402737 <_glob_match+0x1a7>
  402963:	8b 55 08             	mov    0x8(%ebp),%edx
  402966:	89 f0                	mov    %esi,%eax
  402968:	e8 c3 fb ff ff       	call   402530 <_glob_store_entry>
  40296d:	e9 e6 fe ff ff       	jmp    402858 <_glob_match+0x2c8>
  402972:	c7 45 c4 03 00 00 00 	movl   $0x3,-0x3c(%ebp)
  402979:	e9 da fe ff ff       	jmp    402858 <_glob_match+0x2c8>
  40297e:	66 90                	xchg   %ax,%ax
  402980:	8b 45 b4             	mov    -0x4c(%ebp),%eax
  402983:	e9 af fd ff ff       	jmp    402737 <_glob_match+0x1a7>
  402988:	8b 45 b8             	mov    -0x48(%ebp),%eax
  40298b:	89 04 24             	mov    %eax,(%esp)
  40298e:	e8 ad 55 00 00       	call   407f40 <_strlen>
  402993:	01 d8                	add    %ebx,%eax
  402995:	39 c3                	cmp    %eax,%ebx
  402997:	0f 83 94 01 00 00    	jae    402b31 <_glob_match+0x5a1>
  40299d:	0f b6 10             	movzbl (%eax),%edx
  4029a0:	80 fa 2f             	cmp    $0x2f,%dl
  4029a3:	0f 84 7d 01 00 00    	je     402b26 <_glob_match+0x596>
  4029a9:	80 fa 5c             	cmp    $0x5c,%dl
  4029ac:	75 1d                	jne    4029cb <_glob_match+0x43b>
  4029ae:	66 90                	xchg   %ax,%ax
  4029b0:	e9 71 01 00 00       	jmp    402b26 <_glob_match+0x596>
  4029b5:	0f b6 40 ff          	movzbl -0x1(%eax),%eax
  4029b9:	3c 5c                	cmp    $0x5c,%al
  4029bb:	0f 84 c0 00 00 00    	je     402a81 <_glob_match+0x4f1>
  4029c1:	3c 2f                	cmp    $0x2f,%al
  4029c3:	0f 84 b8 00 00 00    	je     402a81 <_glob_match+0x4f1>
  4029c9:	89 d0                	mov    %edx,%eax
  4029cb:	8d 50 ff             	lea    -0x1(%eax),%edx
  4029ce:	39 da                	cmp    %ebx,%edx
  4029d0:	75 e3                	jne    4029b5 <_glob_match+0x425>
  4029d2:	0f b6 40 ff          	movzbl -0x1(%eax),%eax
  4029d6:	89 55 c0             	mov    %edx,-0x40(%ebp)
  4029d9:	88 45 a3             	mov    %al,-0x5d(%ebp)
  4029dc:	80 7d a3 5c          	cmpb   $0x5c,-0x5d(%ebp)
  4029e0:	0f 85 0c 01 00 00    	jne    402af2 <_glob_match+0x562>
  4029e6:	8b 45 c0             	mov    -0x40(%ebp),%eax
  4029e9:	0f b6 4d a3          	movzbl -0x5d(%ebp),%ecx
  4029ed:	83 c0 01             	add    $0x1,%eax
  4029f0:	0f b6 10             	movzbl (%eax),%edx
  4029f3:	80 fa 5c             	cmp    $0x5c,%dl
  4029f6:	75 0d                	jne    402a05 <_glob_match+0x475>
  4029f8:	83 c0 01             	add    $0x1,%eax
  4029fb:	89 d1                	mov    %edx,%ecx
  4029fd:	0f b6 10             	movzbl (%eax),%edx
  402a00:	80 fa 5c             	cmp    $0x5c,%dl
  402a03:	74 f3                	je     4029f8 <_glob_match+0x468>
  402a05:	80 fa 2f             	cmp    $0x2f,%dl
  402a08:	74 ee                	je     4029f8 <_glob_match+0x468>
  402a0a:	89 45 c0             	mov    %eax,-0x40(%ebp)
  402a0d:	88 4d a3             	mov    %cl,-0x5d(%ebp)
  402a10:	8b 45 b8             	mov    -0x48(%ebp),%eax
  402a13:	85 c0                	test   %eax,%eax
  402a15:	0f 85 47 fc ff ff    	jne    402662 <_glob_match+0xd2>
  402a1b:	8b 5d c0             	mov    -0x40(%ebp),%ebx
  402a1e:	e9 2b fc ff ff       	jmp    40264e <_glob_match+0xbe>
  402a23:	8b 5d 98             	mov    -0x68(%ebp),%ebx
  402a26:	85 db                	test   %ebx,%ebx
  402a28:	75 28                	jne    402a52 <_glob_match+0x4c2>
  402a2a:	8b 7d a4             	mov    -0x5c(%ebp),%edi
  402a2d:	85 ff                	test   %edi,%edi
  402a2f:	0f 84 bd fe ff ff    	je     4028f2 <_glob_match+0x362>
  402a35:	e8 66 55 00 00       	call   407fa0 <__errno>
  402a3a:	8b 00                	mov    (%eax),%eax
  402a3c:	89 44 24 04          	mov    %eax,0x4(%esp)
  402a40:	8b 45 c8             	mov    -0x38(%ebp),%eax
  402a43:	8b 00                	mov    (%eax),%eax
  402a45:	89 04 24             	mov    %eax,(%esp)
  402a48:	ff d7                	call   *%edi
  402a4a:	85 c0                	test   %eax,%eax
  402a4c:	0f 84 a0 fe ff ff    	je     4028f2 <_glob_match+0x362>
  402a52:	c7 45 c4 01 00 00 00 	movl   $0x1,-0x3c(%ebp)
  402a59:	e9 94 fe ff ff       	jmp    4028f2 <_glob_match+0x362>
  402a5e:	66 90                	xchg   %ax,%ax
  402a60:	8b 7d bc             	mov    -0x44(%ebp),%edi
  402a63:	89 03                	mov    %eax,(%ebx)
  402a65:	85 ff                	test   %edi,%edi
  402a67:	0f 85 eb fd ff ff    	jne    402858 <_glob_match+0x2c8>
  402a6d:	89 45 bc             	mov    %eax,-0x44(%ebp)
  402a70:	e9 e3 fd ff ff       	jmp    402858 <_glob_match+0x2c8>
  402a75:	c7 45 b4 00 00 00 00 	movl   $0x0,-0x4c(%ebp)
  402a7c:	e9 47 fc ff ff       	jmp    4026c8 <_glob_match+0x138>
  402a81:	89 55 c0             	mov    %edx,-0x40(%ebp)
  402a84:	88 45 a3             	mov    %al,-0x5d(%ebp)
  402a87:	e9 50 ff ff ff       	jmp    4029dc <_glob_match+0x44c>
  402a8c:	31 db                	xor    %ebx,%ebx
  402a8e:	31 c9                	xor    %ecx,%ecx
  402a90:	e9 83 fd ff ff       	jmp    402818 <_glob_match+0x288>
  402a95:	8b 55 cc             	mov    -0x34(%ebp),%edx
  402a98:	89 d8                	mov    %ebx,%eax
  402a9a:	e8 a1 f4 ff ff       	call   401f40 <_is_glob_pattern>
  402a9f:	85 c0                	test   %eax,%eax
  402aa1:	0f 85 bb fb ff ff    	jne    402662 <_glob_match+0xd2>
  402aa7:	89 1c 24             	mov    %ebx,(%esp)
  402aaa:	89 e6                	mov    %esp,%esi
  402aac:	e8 8f 54 00 00       	call   407f40 <_strlen>
  402ab1:	83 c0 10             	add    $0x10,%eax
  402ab4:	83 e0 f0             	and    $0xfffffff0,%eax
  402ab7:	e8 54 f4 ff ff       	call   401f10 <___chkstk_ms>
  402abc:	29 c4                	sub    %eax,%esp
  402abe:	8d 4c 24 0c          	lea    0xc(%esp),%ecx
  402ac2:	89 ca                	mov    %ecx,%edx
  402ac4:	eb 0d                	jmp    402ad3 <_glob_match+0x543>
  402ac6:	83 c2 01             	add    $0x1,%edx
  402ac9:	83 c3 01             	add    $0x1,%ebx
  402acc:	84 c0                	test   %al,%al
  402ace:	88 42 ff             	mov    %al,-0x1(%edx)
  402ad1:	74 32                	je     402b05 <_glob_match+0x575>
  402ad3:	0f b6 03             	movzbl (%ebx),%eax
  402ad6:	3c 7f                	cmp    $0x7f,%al
  402ad8:	75 ec                	jne    402ac6 <_glob_match+0x536>
  402ada:	0f b6 43 01          	movzbl 0x1(%ebx),%eax
  402ade:	83 c3 01             	add    $0x1,%ebx
  402ae1:	eb e3                	jmp    402ac6 <_glob_match+0x536>
  402ae3:	8b 45 c8             	mov    -0x38(%ebp),%eax
  402ae6:	c7 45 c4 02 00 00 00 	movl   $0x2,-0x3c(%ebp)
  402aed:	e9 1f fe ff ff       	jmp    402911 <_glob_match+0x381>
  402af2:	80 7d a3 2f          	cmpb   $0x2f,-0x5d(%ebp)
  402af6:	0f 84 ea fe ff ff    	je     4029e6 <_glob_match+0x456>
  402afc:	c6 45 a3 5c          	movb   $0x5c,-0x5d(%ebp)
  402b00:	e9 0b ff ff ff       	jmp    402a10 <_glob_match+0x480>
  402b05:	89 0c 24             	mov    %ecx,(%esp)
  402b08:	e8 f3 57 00 00       	call   408300 <_strdup>
  402b0d:	8b 55 08             	mov    0x8(%ebp),%edx
  402b10:	89 f4                	mov    %esi,%esp
  402b12:	e8 19 fa ff ff       	call   402530 <_glob_store_entry>
  402b17:	8b 45 e0             	mov    -0x20(%ebp),%eax
  402b1a:	c7 45 c4 00 00 00 00 	movl   $0x0,-0x3c(%ebp)
  402b21:	e9 eb fd ff ff       	jmp    402911 <_glob_match+0x381>
  402b26:	88 55 a3             	mov    %dl,-0x5d(%ebp)
  402b29:	89 45 c0             	mov    %eax,-0x40(%ebp)
  402b2c:	e9 ab fe ff ff       	jmp    4029dc <_glob_match+0x44c>
  402b31:	0f b6 08             	movzbl (%eax),%ecx
  402b34:	89 45 c0             	mov    %eax,-0x40(%ebp)
  402b37:	88 4d a3             	mov    %cl,-0x5d(%ebp)
  402b3a:	e9 9d fe ff ff       	jmp    4029dc <_glob_match+0x44c>
  402b3f:	90                   	nop

00402b40 <___mingw_glob>:
  402b40:	55                   	push   %ebp
  402b41:	89 e5                	mov    %esp,%ebp
  402b43:	57                   	push   %edi
  402b44:	56                   	push   %esi
  402b45:	53                   	push   %ebx
  402b46:	83 ec 1c             	sub    $0x1c,%esp
  402b49:	8b 75 14             	mov    0x14(%ebp),%esi
  402b4c:	8b 5d 08             	mov    0x8(%ebp),%ebx
  402b4f:	81 3e 16 a1 40 00    	cmpl   $0x40a116,(%esi)
  402b55:	74 0d                	je     402b64 <___mingw_glob+0x24>
  402b57:	89 f0                	mov    %esi,%eax
  402b59:	e8 82 f6 ff ff       	call   4021e0 <_glob_initialise>
  402b5e:	c7 06 16 a1 40 00    	movl   $0x40a116,(%esi)
  402b64:	89 34 24             	mov    %esi,(%esp)
  402b67:	8b 4d 10             	mov    0x10(%ebp),%ecx
  402b6a:	89 d8                	mov    %ebx,%eax
  402b6c:	8b 55 0c             	mov    0xc(%ebp),%edx
  402b6f:	e8 1c fa ff ff       	call   402590 <_glob_match>
  402b74:	83 f8 02             	cmp    $0x2,%eax
  402b77:	89 c7                	mov    %eax,%edi
  402b79:	74 0a                	je     402b85 <___mingw_glob+0x45>
  402b7b:	8d 65 f4             	lea    -0xc(%ebp),%esp
  402b7e:	89 f8                	mov    %edi,%eax
  402b80:	5b                   	pop    %ebx
  402b81:	5e                   	pop    %esi
  402b82:	5f                   	pop    %edi
  402b83:	5d                   	pop    %ebp
  402b84:	c3                   	ret    
  402b85:	f6 45 0c 10          	testb  $0x10,0xc(%ebp)
  402b89:	74 f0                	je     402b7b <___mingw_glob+0x3b>
  402b8b:	89 65 e4             	mov    %esp,-0x1c(%ebp)
  402b8e:	89 1c 24             	mov    %ebx,(%esp)
  402b91:	e8 aa 53 00 00       	call   407f40 <_strlen>
  402b96:	83 c0 10             	add    $0x10,%eax
  402b99:	83 e0 f0             	and    $0xfffffff0,%eax
  402b9c:	e8 6f f3 ff ff       	call   401f10 <___chkstk_ms>
  402ba1:	29 c4                	sub    %eax,%esp
  402ba3:	8d 4c 24 04          	lea    0x4(%esp),%ecx
  402ba7:	89 ca                	mov    %ecx,%edx
  402ba9:	eb 12                	jmp    402bbd <___mingw_glob+0x7d>
  402bab:	90                   	nop
  402bac:	8d 74 26 00          	lea    0x0(%esi,%eiz,1),%esi
  402bb0:	83 c2 01             	add    $0x1,%edx
  402bb3:	83 c3 01             	add    $0x1,%ebx
  402bb6:	84 c0                	test   %al,%al
  402bb8:	88 42 ff             	mov    %al,-0x1(%edx)
  402bbb:	74 1b                	je     402bd8 <___mingw_glob+0x98>
  402bbd:	0f b6 03             	movzbl (%ebx),%eax
  402bc0:	3c 7f                	cmp    $0x7f,%al
  402bc2:	75 ec                	jne    402bb0 <___mingw_glob+0x70>
  402bc4:	0f b6 43 01          	movzbl 0x1(%ebx),%eax
  402bc8:	83 c3 01             	add    $0x1,%ebx
  402bcb:	83 c2 01             	add    $0x1,%edx
  402bce:	83 c3 01             	add    $0x1,%ebx
  402bd1:	84 c0                	test   %al,%al
  402bd3:	88 42 ff             	mov    %al,-0x1(%edx)
  402bd6:	75 e5                	jne    402bbd <___mingw_glob+0x7d>
  402bd8:	89 0c 24             	mov    %ecx,(%esp)
  402bdb:	e8 20 57 00 00       	call   408300 <_strdup>
  402be0:	8b 65 e4             	mov    -0x1c(%ebp),%esp
  402be3:	89 f2                	mov    %esi,%edx
  402be5:	e8 46 f9 ff ff       	call   402530 <_glob_store_entry>
  402bea:	8d 65 f4             	lea    -0xc(%ebp),%esp
  402bed:	89 f8                	mov    %edi,%eax
  402bef:	5b                   	pop    %ebx
  402bf0:	5e                   	pop    %esi
  402bf1:	5f                   	pop    %edi
  402bf2:	5d                   	pop    %ebp
  402bf3:	c3                   	ret    
  402bf4:	8d b6 00 00 00 00    	lea    0x0(%esi),%esi
  402bfa:	8d bf 00 00 00 00    	lea    0x0(%edi),%edi

00402c00 <___mingw_globfree>:
  402c00:	8b 44 24 04          	mov    0x4(%esp),%eax
  402c04:	81 38 16 a1 40 00    	cmpl   $0x40a116,(%eax)
  402c0a:	74 04                	je     402c10 <___mingw_globfree+0x10>
  402c0c:	f3 c3                	repz ret 
  402c0e:	66 90                	xchg   %ax,%ax
  402c10:	e9 5b f8 ff ff       	jmp    402470 <_glob_registry.part.1>
  402c15:	90                   	nop
  402c16:	90                   	nop
  402c17:	90                   	nop
  402c18:	90                   	nop
  402c19:	90                   	nop
  402c1a:	90                   	nop
  402c1b:	90                   	nop
  402c1c:	90                   	nop
  402c1d:	90                   	nop
  402c1e:	90                   	nop
  402c1f:	90                   	nop

00402c20 <___mingw_dirname>:
  402c20:	55                   	push   %ebp
  402c21:	89 e5                	mov    %esp,%ebp
  402c23:	57                   	push   %edi
  402c24:	56                   	push   %esi
  402c25:	53                   	push   %ebx
  402c26:	83 ec 3c             	sub    $0x3c,%esp
  402c29:	8b 75 08             	mov    0x8(%ebp),%esi
  402c2c:	c7 44 24 04 00 00 00 	movl   $0x0,0x4(%esp)
  402c33:	00 
  402c34:	c7 04 24 02 00 00 00 	movl   $0x2,(%esp)
  402c3b:	e8 68 53 00 00       	call   407fa8 <_setlocale>
  402c40:	85 c0                	test   %eax,%eax
  402c42:	89 c3                	mov    %eax,%ebx
  402c44:	74 0a                	je     402c50 <___mingw_dirname+0x30>
  402c46:	89 04 24             	mov    %eax,(%esp)
  402c49:	e8 b2 56 00 00       	call   408300 <_strdup>
  402c4e:	89 c3                	mov    %eax,%ebx
  402c50:	c7 44 24 04 28 a1 40 	movl   $0x40a128,0x4(%esp)
  402c57:	00 
  402c58:	c7 04 24 02 00 00 00 	movl   $0x2,(%esp)
  402c5f:	e8 44 53 00 00       	call   407fa8 <_setlocale>
  402c64:	85 f6                	test   %esi,%esi
  402c66:	74 05                	je     402c6d <___mingw_dirname+0x4d>
  402c68:	80 3e 00             	cmpb   $0x0,(%esi)
  402c6b:	75 73                	jne    402ce0 <___mingw_dirname+0xc0>
  402c6d:	c7 44 24 08 00 00 00 	movl   $0x0,0x8(%esp)
  402c74:	00 
  402c75:	c7 44 24 04 2a a1 40 	movl   $0x40a12a,0x4(%esp)
  402c7c:	00 
  402c7d:	c7 04 24 00 00 00 00 	movl   $0x0,(%esp)
  402c84:	e8 27 53 00 00       	call   407fb0 <_wcstombs>
  402c89:	8d 70 01             	lea    0x1(%eax),%esi
  402c8c:	89 74 24 04          	mov    %esi,0x4(%esp)
  402c90:	a1 68 d0 40 00       	mov    0x40d068,%eax
  402c95:	89 04 24             	mov    %eax,(%esp)
  402c98:	e8 f3 52 00 00       	call   407f90 <_realloc>
  402c9d:	a3 68 d0 40 00       	mov    %eax,0x40d068
  402ca2:	89 74 24 08          	mov    %esi,0x8(%esp)
  402ca6:	c7 44 24 04 2a a1 40 	movl   $0x40a12a,0x4(%esp)
  402cad:	00 
  402cae:	89 04 24             	mov    %eax,(%esp)
  402cb1:	e8 fa 52 00 00       	call   407fb0 <_wcstombs>
  402cb6:	89 5c 24 04          	mov    %ebx,0x4(%esp)
  402cba:	c7 04 24 02 00 00 00 	movl   $0x2,(%esp)
  402cc1:	e8 e2 52 00 00       	call   407fa8 <_setlocale>
  402cc6:	89 1c 24             	mov    %ebx,(%esp)
  402cc9:	e8 aa 52 00 00       	call   407f78 <_free>
  402cce:	a1 68 d0 40 00       	mov    0x40d068,%eax
  402cd3:	8d 65 f4             	lea    -0xc(%ebp),%esp
  402cd6:	5b                   	pop    %ebx
  402cd7:	5e                   	pop    %esi
  402cd8:	5f                   	pop    %edi
  402cd9:	5d                   	pop    %ebp
  402cda:	c3                   	ret    
  402cdb:	90                   	nop
  402cdc:	8d 74 26 00          	lea    0x0(%esi,%eiz,1),%esi
  402ce0:	89 65 d4             	mov    %esp,-0x2c(%ebp)
  402ce3:	c7 44 24 08 00 00 00 	movl   $0x0,0x8(%esp)
  402cea:	00 
  402ceb:	89 74 24 04          	mov    %esi,0x4(%esp)
  402cef:	c7 04 24 00 00 00 00 	movl   $0x0,(%esp)
  402cf6:	e8 bd 52 00 00       	call   407fb8 <_mbstowcs>
  402cfb:	89 c2                	mov    %eax,%edx
  402cfd:	8d 44 00 12          	lea    0x12(%eax,%eax,1),%eax
  402d01:	83 e0 f0             	and    $0xfffffff0,%eax
  402d04:	e8 07 f2 ff ff       	call   401f10 <___chkstk_ms>
  402d09:	29 c4                	sub    %eax,%esp
  402d0b:	8d 44 24 0d          	lea    0xd(%esp),%eax
  402d0f:	89 45 e4             	mov    %eax,-0x1c(%ebp)
  402d12:	d1 6d e4             	shrl   -0x1c(%ebp)
  402d15:	8b 45 e4             	mov    -0x1c(%ebp),%eax
  402d18:	01 c0                	add    %eax,%eax
  402d1a:	89 45 e0             	mov    %eax,-0x20(%ebp)
  402d1d:	89 c7                	mov    %eax,%edi
  402d1f:	89 54 24 08          	mov    %edx,0x8(%esp)
  402d23:	89 74 24 04          	mov    %esi,0x4(%esp)
  402d27:	89 04 24             	mov    %eax,(%esp)
  402d2a:	e8 89 52 00 00       	call   407fb8 <_mbstowcs>
  402d2f:	31 c9                	xor    %ecx,%ecx
  402d31:	66 89 0c 47          	mov    %cx,(%edi,%eax,2)
  402d35:	83 f8 01             	cmp    $0x1,%eax
  402d38:	89 45 d0             	mov    %eax,-0x30(%ebp)
  402d3b:	8b 45 e4             	mov    -0x1c(%ebp),%eax
  402d3e:	0f b7 04 00          	movzwl (%eax,%eax,1),%eax
  402d42:	66 89 45 da          	mov    %ax,-0x26(%ebp)
  402d46:	0f 86 f2 00 00 00    	jbe    402e3e <___mingw_dirname+0x21e>
  402d4c:	66 83 f8 5c          	cmp    $0x5c,%ax
  402d50:	74 0a                	je     402d5c <___mingw_dirname+0x13c>
  402d52:	66 83 f8 2f          	cmp    $0x2f,%ax
  402d56:	0f 85 0a 01 00 00    	jne    402e66 <___mingw_dirname+0x246>
  402d5c:	8b 7d e0             	mov    -0x20(%ebp),%edi
  402d5f:	89 7d dc             	mov    %edi,-0x24(%ebp)
  402d62:	8b 7d e4             	mov    -0x1c(%ebp),%edi
  402d65:	66 3b 44 3f 02       	cmp    0x2(%edi,%edi,1),%ax
  402d6a:	0f 84 4f 02 00 00    	je     402fbf <___mingw_dirname+0x39f>
  402d70:	0f b7 45 da          	movzwl -0x26(%ebp),%eax
  402d74:	66 85 c0             	test   %ax,%ax
  402d77:	0f 84 fa 01 00 00    	je     402f77 <___mingw_dirname+0x357>
  402d7d:	8b 55 dc             	mov    -0x24(%ebp),%edx
  402d80:	89 d7                	mov    %edx,%edi
  402d82:	eb 14                	jmp    402d98 <___mingw_dirname+0x178>
  402d84:	66 83 f8 2f          	cmp    $0x2f,%ax
  402d88:	74 20                	je     402daa <___mingw_dirname+0x18a>
  402d8a:	0f b7 42 02          	movzwl 0x2(%edx),%eax
  402d8e:	8d 4a 02             	lea    0x2(%edx),%ecx
  402d91:	66 85 c0             	test   %ax,%ax
  402d94:	74 36                	je     402dcc <___mingw_dirname+0x1ac>
  402d96:	89 ca                	mov    %ecx,%edx
  402d98:	66 83 f8 5c          	cmp    $0x5c,%ax
  402d9c:	75 e6                	jne    402d84 <___mingw_dirname+0x164>
  402d9e:	0f b7 02             	movzwl (%edx),%eax
  402da1:	66 83 f8 5c          	cmp    $0x5c,%ax
  402da5:	75 0c                	jne    402db3 <___mingw_dirname+0x193>
  402da7:	83 c2 02             	add    $0x2,%edx
  402daa:	0f b7 02             	movzwl (%edx),%eax
  402dad:	66 83 f8 5c          	cmp    $0x5c,%ax
  402db1:	74 f4                	je     402da7 <___mingw_dirname+0x187>
  402db3:	66 83 f8 2f          	cmp    $0x2f,%ax
  402db7:	74 ee                	je     402da7 <___mingw_dirname+0x187>
  402db9:	66 85 c0             	test   %ax,%ax
  402dbc:	74 0e                	je     402dcc <___mingw_dirname+0x1ac>
  402dbe:	0f b7 42 02          	movzwl 0x2(%edx),%eax
  402dc2:	89 d7                	mov    %edx,%edi
  402dc4:	8d 4a 02             	lea    0x2(%edx),%ecx
  402dc7:	66 85 c0             	test   %ax,%ax
  402dca:	75 ca                	jne    402d96 <___mingw_dirname+0x176>
  402dcc:	8b 4d dc             	mov    -0x24(%ebp),%ecx
  402dcf:	39 f9                	cmp    %edi,%ecx
  402dd1:	72 7e                	jb     402e51 <___mingw_dirname+0x231>
  402dd3:	66 83 7d da 5c       	cmpw   $0x5c,-0x26(%ebp)
  402dd8:	74 0b                	je     402de5 <___mingw_dirname+0x1c5>
  402dda:	66 83 7d da 2f       	cmpw   $0x2f,-0x26(%ebp)
  402ddf:	0f 85 ba 01 00 00    	jne    402f9f <___mingw_dirname+0x37f>
  402de5:	8b 45 dc             	mov    -0x24(%ebp),%eax
  402de8:	83 c0 02             	add    $0x2,%eax
  402deb:	31 d2                	xor    %edx,%edx
  402ded:	66 89 10             	mov    %dx,(%eax)
  402df0:	c7 44 24 08 00 00 00 	movl   $0x0,0x8(%esp)
  402df7:	00 
  402df8:	8b 45 e0             	mov    -0x20(%ebp),%eax
  402dfb:	c7 04 24 00 00 00 00 	movl   $0x0,(%esp)
  402e02:	89 44 24 04          	mov    %eax,0x4(%esp)
  402e06:	e8 a5 51 00 00       	call   407fb0 <_wcstombs>
  402e0b:	8d 78 01             	lea    0x1(%eax),%edi
  402e0e:	89 7c 24 04          	mov    %edi,0x4(%esp)
  402e12:	a1 68 d0 40 00       	mov    0x40d068,%eax
  402e17:	89 04 24             	mov    %eax,(%esp)
  402e1a:	e8 71 51 00 00       	call   407f90 <_realloc>
  402e1f:	a3 68 d0 40 00       	mov    %eax,0x40d068
  402e24:	89 c6                	mov    %eax,%esi
  402e26:	89 7c 24 08          	mov    %edi,0x8(%esp)
  402e2a:	8b 45 e0             	mov    -0x20(%ebp),%eax
  402e2d:	89 34 24             	mov    %esi,(%esp)
  402e30:	89 44 24 04          	mov    %eax,0x4(%esp)
  402e34:	e8 77 51 00 00       	call   407fb0 <_wcstombs>
  402e39:	e9 e9 00 00 00       	jmp    402f27 <___mingw_dirname+0x307>
  402e3e:	8b 45 e0             	mov    -0x20(%ebp),%eax
  402e41:	89 45 dc             	mov    %eax,-0x24(%ebp)
  402e44:	e9 27 ff ff ff       	jmp    402d70 <___mingw_dirname+0x150>
  402e49:	66 83 fa 2f          	cmp    $0x2f,%dx
  402e4d:	75 46                	jne    402e95 <___mingw_dirname+0x275>
  402e4f:	89 c7                	mov    %eax,%edi
  402e51:	8d 47 fe             	lea    -0x2(%edi),%eax
  402e54:	39 c1                	cmp    %eax,%ecx
  402e56:	73 3d                	jae    402e95 <___mingw_dirname+0x275>
  402e58:	0f b7 57 fe          	movzwl -0x2(%edi),%edx
  402e5c:	66 83 fa 5c          	cmp    $0x5c,%dx
  402e60:	75 e7                	jne    402e49 <___mingw_dirname+0x229>
  402e62:	89 c7                	mov    %eax,%edi
  402e64:	eb eb                	jmp    402e51 <___mingw_dirname+0x231>
  402e66:	8b 45 e0             	mov    -0x20(%ebp),%eax
  402e69:	89 45 dc             	mov    %eax,-0x24(%ebp)
  402e6c:	8b 45 e4             	mov    -0x1c(%ebp),%eax
  402e6f:	66 83 7c 00 02 3a    	cmpw   $0x3a,0x2(%eax,%eax,1)
  402e75:	0f 85 f5 fe ff ff    	jne    402d70 <___mingw_dirname+0x150>
  402e7b:	8b 45 e0             	mov    -0x20(%ebp),%eax
  402e7e:	83 c0 04             	add    $0x4,%eax
  402e81:	89 45 dc             	mov    %eax,-0x24(%ebp)
  402e84:	8b 45 e4             	mov    -0x1c(%ebp),%eax
  402e87:	0f b7 44 00 04       	movzwl 0x4(%eax,%eax,1),%eax
  402e8c:	66 89 45 da          	mov    %ax,-0x26(%ebp)
  402e90:	e9 db fe ff ff       	jmp    402d70 <___mingw_dirname+0x150>
  402e95:	39 45 dc             	cmp    %eax,-0x24(%ebp)
  402e98:	0f 84 37 01 00 00    	je     402fd5 <___mingw_dirname+0x3b5>
  402e9e:	31 d2                	xor    %edx,%edx
  402ea0:	66 89 50 02          	mov    %dx,0x2(%eax)
  402ea4:	8b 45 e4             	mov    -0x1c(%ebp),%eax
  402ea7:	0f b7 14 00          	movzwl (%eax,%eax,1),%edx
  402eab:	8b 45 e0             	mov    -0x20(%ebp),%eax
  402eae:	66 83 fa 5c          	cmp    $0x5c,%dx
  402eb2:	0f 85 c7 00 00 00    	jne    402f7f <___mingw_dirname+0x35f>
  402eb8:	83 c0 02             	add    $0x2,%eax
  402ebb:	0f b7 08             	movzwl (%eax),%ecx
  402ebe:	66 83 f9 5c          	cmp    $0x5c,%cx
  402ec2:	74 f4                	je     402eb8 <___mingw_dirname+0x298>
  402ec4:	66 83 f9 2f          	cmp    $0x2f,%cx
  402ec8:	74 ee                	je     402eb8 <___mingw_dirname+0x298>
  402eca:	89 c1                	mov    %eax,%ecx
  402ecc:	2b 4d e0             	sub    -0x20(%ebp),%ecx
  402ecf:	83 f9 05             	cmp    $0x5,%ecx
  402ed2:	0f 8e b1 00 00 00    	jle    402f89 <___mingw_dirname+0x369>
  402ed8:	8b 45 e0             	mov    -0x20(%ebp),%eax
  402edb:	89 c1                	mov    %eax,%ecx
  402edd:	66 85 d2             	test   %dx,%dx
  402ee0:	74 21                	je     402f03 <___mingw_dirname+0x2e3>
  402ee2:	83 c1 02             	add    $0x2,%ecx
  402ee5:	66 83 fa 2f          	cmp    $0x2f,%dx
  402ee9:	66 89 51 fe          	mov    %dx,-0x2(%ecx)
  402eed:	74 63                	je     402f52 <___mingw_dirname+0x332>
  402eef:	66 83 38 5c          	cmpw   $0x5c,(%eax)
  402ef3:	8d 78 02             	lea    0x2(%eax),%edi
  402ef6:	74 58                	je     402f50 <___mingw_dirname+0x330>
  402ef8:	0f b7 50 02          	movzwl 0x2(%eax),%edx
  402efc:	89 f8                	mov    %edi,%eax
  402efe:	66 85 d2             	test   %dx,%dx
  402f01:	75 df                	jne    402ee2 <___mingw_dirname+0x2c2>
  402f03:	8b 45 d0             	mov    -0x30(%ebp),%eax
  402f06:	31 ff                	xor    %edi,%edi
  402f08:	66 89 39             	mov    %di,(%ecx)
  402f0b:	89 44 24 08          	mov    %eax,0x8(%esp)
  402f0f:	8b 45 e0             	mov    -0x20(%ebp),%eax
  402f12:	89 34 24             	mov    %esi,(%esp)
  402f15:	89 44 24 04          	mov    %eax,0x4(%esp)
  402f19:	e8 92 50 00 00       	call   407fb0 <_wcstombs>
  402f1e:	83 f8 ff             	cmp    $0xffffffff,%eax
  402f21:	74 04                	je     402f27 <___mingw_dirname+0x307>
  402f23:	c6 04 06 00          	movb   $0x0,(%esi,%eax,1)
  402f27:	89 5c 24 04          	mov    %ebx,0x4(%esp)
  402f2b:	c7 04 24 02 00 00 00 	movl   $0x2,(%esp)
  402f32:	e8 71 50 00 00       	call   407fa8 <_setlocale>
  402f37:	89 1c 24             	mov    %ebx,(%esp)
  402f3a:	e8 39 50 00 00       	call   407f78 <_free>
  402f3f:	8b 65 d4             	mov    -0x2c(%ebp),%esp
  402f42:	8d 65 f4             	lea    -0xc(%ebp),%esp
  402f45:	5b                   	pop    %ebx
  402f46:	89 f0                	mov    %esi,%eax
  402f48:	5e                   	pop    %esi
  402f49:	5f                   	pop    %edi
  402f4a:	5d                   	pop    %ebp
  402f4b:	c3                   	ret    
  402f4c:	8d 74 26 00          	lea    0x0(%esi,%eiz,1),%esi
  402f50:	89 f8                	mov    %edi,%eax
  402f52:	0f b7 10             	movzwl (%eax),%edx
  402f55:	66 83 fa 2f          	cmp    $0x2f,%dx
  402f59:	75 59                	jne    402fb4 <___mingw_dirname+0x394>
  402f5b:	90                   	nop
  402f5c:	8d 74 26 00          	lea    0x0(%esi,%eiz,1),%esi
  402f60:	83 c0 02             	add    $0x2,%eax
  402f63:	0f b7 10             	movzwl (%eax),%edx
  402f66:	66 83 fa 5c          	cmp    $0x5c,%dx
  402f6a:	74 f4                	je     402f60 <___mingw_dirname+0x340>
  402f6c:	66 83 fa 2f          	cmp    $0x2f,%dx
  402f70:	74 ee                	je     402f60 <___mingw_dirname+0x340>
  402f72:	e9 66 ff ff ff       	jmp    402edd <___mingw_dirname+0x2bd>
  402f77:	8b 65 d4             	mov    -0x2c(%ebp),%esp
  402f7a:	e9 ee fc ff ff       	jmp    402c6d <___mingw_dirname+0x4d>
  402f7f:	66 83 fa 2f          	cmp    $0x2f,%dx
  402f83:	0f 84 2f ff ff ff    	je     402eb8 <___mingw_dirname+0x298>
  402f89:	8b 7d e4             	mov    -0x1c(%ebp),%edi
  402f8c:	66 39 54 3f 02       	cmp    %dx,0x2(%edi,%edi,1)
  402f91:	0f 85 41 ff ff ff    	jne    402ed8 <___mingw_dirname+0x2b8>
  402f97:	0f b7 10             	movzwl (%eax),%edx
  402f9a:	e9 3c ff ff ff       	jmp    402edb <___mingw_dirname+0x2bb>
  402f9f:	8b 7d dc             	mov    -0x24(%ebp),%edi
  402fa2:	b9 2e 00 00 00       	mov    $0x2e,%ecx
  402fa7:	89 f8                	mov    %edi,%eax
  402fa9:	83 c0 02             	add    $0x2,%eax
  402fac:	66 89 0f             	mov    %cx,(%edi)
  402faf:	e9 37 fe ff ff       	jmp    402deb <___mingw_dirname+0x1cb>
  402fb4:	66 83 fa 5c          	cmp    $0x5c,%dx
  402fb8:	74 a6                	je     402f60 <___mingw_dirname+0x340>
  402fba:	e9 1e ff ff ff       	jmp    402edd <___mingw_dirname+0x2bd>
  402fbf:	66 83 7c 3f 04 00    	cmpw   $0x0,0x4(%edi,%edi,1)
  402fc5:	0f 85 a5 fd ff ff    	jne    402d70 <___mingw_dirname+0x150>
  402fcb:	90                   	nop
  402fcc:	8d 74 26 00          	lea    0x0(%esi,%eiz,1),%esi
  402fd0:	e9 52 ff ff ff       	jmp    402f27 <___mingw_dirname+0x307>
  402fd5:	66 83 7d da 5c       	cmpw   $0x5c,-0x26(%ebp)
  402fda:	74 0e                	je     402fea <___mingw_dirname+0x3ca>
  402fdc:	66 83 7d da 2f       	cmpw   $0x2f,-0x26(%ebp)
  402fe1:	8b 45 dc             	mov    -0x24(%ebp),%eax
  402fe4:	0f 85 b4 fe ff ff    	jne    402e9e <___mingw_dirname+0x27e>
  402fea:	8b 45 dc             	mov    -0x24(%ebp),%eax
  402fed:	0f b7 4d da          	movzwl -0x26(%ebp),%ecx
  402ff1:	66 39 48 02          	cmp    %cx,0x2(%eax)
  402ff5:	0f 85 a3 fe ff ff    	jne    402e9e <___mingw_dirname+0x27e>
  402ffb:	0f b7 50 04          	movzwl 0x4(%eax),%edx
  402fff:	66 83 fa 2f          	cmp    $0x2f,%dx
  403003:	0f 84 95 fe ff ff    	je     402e9e <___mingw_dirname+0x27e>
  403009:	66 83 fa 5c          	cmp    $0x5c,%dx
  40300d:	89 f8                	mov    %edi,%eax
  40300f:	0f 85 89 fe ff ff    	jne    402e9e <___mingw_dirname+0x27e>
  403015:	8b 45 dc             	mov    -0x24(%ebp),%eax
  403018:	e9 81 fe ff ff       	jmp    402e9e <___mingw_dirname+0x27e>
  40301d:	90                   	nop
  40301e:	90                   	nop
  40301f:	90                   	nop

00403020 <_dirent_findnext>:
  403020:	55                   	push   %ebp
  403021:	89 e5                	mov    %esp,%ebp
  403023:	56                   	push   %esi
  403024:	89 d6                	mov    %edx,%esi
  403026:	53                   	push   %ebx
  403027:	81 ec 50 01 00 00    	sub    $0x150,%esp
  40302d:	8d 95 b8 fe ff ff    	lea    -0x148(%ebp),%edx
  403033:	89 54 24 04          	mov    %edx,0x4(%esp)
  403037:	89 04 24             	mov    %eax,(%esp)
  40303a:	e8 21 50 00 00       	call   408060 <_FindNextFileA@8>
  40303f:	83 ec 08             	sub    $0x8,%esp
  403042:	85 c0                	test   %eax,%eax
  403044:	89 c3                	mov    %eax,%ebx
  403046:	75 20                	jne    403068 <_dirent_findnext+0x48>
  403048:	e8 f3 4f 00 00       	call   408040 <_GetLastError@0>
  40304d:	31 db                	xor    %ebx,%ebx
  40304f:	83 f8 12             	cmp    $0x12,%eax
  403052:	74 0b                	je     40305f <_dirent_findnext+0x3f>
  403054:	e8 47 4f 00 00       	call   407fa0 <__errno>
  403059:	c7 00 02 00 00 00    	movl   $0x2,(%eax)
  40305f:	8d 65 f8             	lea    -0x8(%ebp),%esp
  403062:	89 d8                	mov    %ebx,%eax
  403064:	5b                   	pop    %ebx
  403065:	5e                   	pop    %esi
  403066:	5d                   	pop    %ebp
  403067:	c3                   	ret    
  403068:	8d 85 e4 fe ff ff    	lea    -0x11c(%ebp),%eax
  40306e:	89 44 24 0c          	mov    %eax,0xc(%esp)
  403072:	8d 46 0c             	lea    0xc(%esi),%eax
  403075:	c7 44 24 08 30 a1 40 	movl   $0x40a130,0x8(%esp)
  40307c:	00 
  40307d:	c7 44 24 04 04 01 00 	movl   $0x104,0x4(%esp)
  403084:	00 
  403085:	89 04 24             	mov    %eax,(%esp)
  403088:	e8 43 04 00 00       	call   4034d0 <___mingw_snprintf>
  40308d:	66 89 46 06          	mov    %ax,0x6(%esi)
  403091:	8b 85 b8 fe ff ff    	mov    -0x148(%ebp),%eax
  403097:	24 58                	and    $0x58,%al
  403099:	83 f8 10             	cmp    $0x10,%eax
  40309c:	76 12                	jbe    4030b0 <_dirent_findnext+0x90>
  40309e:	c7 46 08 18 00 00 00 	movl   $0x18,0x8(%esi)
  4030a5:	8d 65 f8             	lea    -0x8(%ebp),%esp
  4030a8:	89 d8                	mov    %ebx,%eax
  4030aa:	5b                   	pop    %ebx
  4030ab:	5e                   	pop    %esi
  4030ac:	5d                   	pop    %ebp
  4030ad:	c3                   	ret    
  4030ae:	66 90                	xchg   %ax,%ax
  4030b0:	89 46 08             	mov    %eax,0x8(%esi)
  4030b3:	8d 65 f8             	lea    -0x8(%ebp),%esp
  4030b6:	89 d8                	mov    %ebx,%eax
  4030b8:	5b                   	pop    %ebx
  4030b9:	5e                   	pop    %esi
  4030ba:	5d                   	pop    %ebp
  4030bb:	c3                   	ret    
  4030bc:	8d 74 26 00          	lea    0x0(%esi,%eiz,1),%esi

004030c0 <_dirent_findfirst>:
  4030c0:	55                   	push   %ebp
  4030c1:	89 e5                	mov    %esp,%ebp
  4030c3:	56                   	push   %esi
  4030c4:	53                   	push   %ebx
  4030c5:	89 d3                	mov    %edx,%ebx
  4030c7:	81 ec 50 01 00 00    	sub    $0x150,%esp
  4030cd:	8d 95 b8 fe ff ff    	lea    -0x148(%ebp),%edx
  4030d3:	89 54 24 04          	mov    %edx,0x4(%esp)
  4030d7:	89 04 24             	mov    %eax,(%esp)
  4030da:	e8 89 4f 00 00       	call   408068 <_FindFirstFileA@8>
  4030df:	83 ec 08             	sub    $0x8,%esp
  4030e2:	83 f8 ff             	cmp    $0xffffffff,%eax
  4030e5:	89 c6                	mov    %eax,%esi
  4030e7:	74 4a                	je     403133 <_dirent_findfirst+0x73>
  4030e9:	8d 85 e4 fe ff ff    	lea    -0x11c(%ebp),%eax
  4030ef:	89 44 24 0c          	mov    %eax,0xc(%esp)
  4030f3:	8d 43 0c             	lea    0xc(%ebx),%eax
  4030f6:	c7 44 24 08 30 a1 40 	movl   $0x40a130,0x8(%esp)
  4030fd:	00 
  4030fe:	c7 44 24 04 04 01 00 	movl   $0x104,0x4(%esp)
  403105:	00 
  403106:	89 04 24             	mov    %eax,(%esp)
  403109:	e8 c2 03 00 00       	call   4034d0 <___mingw_snprintf>
  40310e:	8b 8d b8 fe ff ff    	mov    -0x148(%ebp),%ecx
  403114:	80 e1 58             	and    $0x58,%cl
  403117:	83 f9 10             	cmp    $0x10,%ecx
  40311a:	66 89 43 06          	mov    %ax,0x6(%ebx)
  40311e:	89 4b 08             	mov    %ecx,0x8(%ebx)
  403121:	76 07                	jbe    40312a <_dirent_findfirst+0x6a>
  403123:	c7 43 08 18 00 00 00 	movl   $0x18,0x8(%ebx)
  40312a:	8d 65 f8             	lea    -0x8(%ebp),%esp
  40312d:	89 f0                	mov    %esi,%eax
  40312f:	5b                   	pop    %ebx
  403130:	5e                   	pop    %esi
  403131:	5d                   	pop    %ebp
  403132:	c3                   	ret    
  403133:	e8 68 4e 00 00       	call   407fa0 <__errno>
  403138:	89 c3                	mov    %eax,%ebx
  40313a:	e8 01 4f 00 00       	call   408040 <_GetLastError@0>
  40313f:	83 f8 03             	cmp    $0x3,%eax
  403142:	89 03                	mov    %eax,(%ebx)
  403144:	74 2a                	je     403170 <_dirent_findfirst+0xb0>
  403146:	e8 55 4e 00 00       	call   407fa0 <__errno>
  40314b:	81 38 0b 01 00 00    	cmpl   $0x10b,(%eax)
  403151:	74 2d                	je     403180 <_dirent_findfirst+0xc0>
  403153:	e8 48 4e 00 00       	call   407fa0 <__errno>
  403158:	83 38 02             	cmpl   $0x2,(%eax)
  40315b:	74 cd                	je     40312a <_dirent_findfirst+0x6a>
  40315d:	8d 76 00             	lea    0x0(%esi),%esi
  403160:	e8 3b 4e 00 00       	call   407fa0 <__errno>
  403165:	c7 00 16 00 00 00    	movl   $0x16,(%eax)
  40316b:	eb bd                	jmp    40312a <_dirent_findfirst+0x6a>
  40316d:	8d 76 00             	lea    0x0(%esi),%esi
  403170:	e8 2b 4e 00 00       	call   407fa0 <__errno>
  403175:	c7 00 02 00 00 00    	movl   $0x2,(%eax)
  40317b:	eb ad                	jmp    40312a <_dirent_findfirst+0x6a>
  40317d:	8d 76 00             	lea    0x0(%esi),%esi
  403180:	e8 1b 4e 00 00       	call   407fa0 <__errno>
  403185:	c7 00 14 00 00 00    	movl   $0x14,(%eax)
  40318b:	eb 9d                	jmp    40312a <_dirent_findfirst+0x6a>
  40318d:	8d 76 00             	lea    0x0(%esi),%esi

00403190 <___mingw_opendir>:
  403190:	55                   	push   %ebp
  403191:	57                   	push   %edi
  403192:	56                   	push   %esi
  403193:	53                   	push   %ebx
  403194:	81 ec 2c 01 00 00    	sub    $0x12c,%esp
  40319a:	8b 84 24 40 01 00 00 	mov    0x140(%esp),%eax
  4031a1:	85 c0                	test   %eax,%eax
  4031a3:	0f 84 67 01 00 00    	je     403310 <___mingw_opendir+0x180>
  4031a9:	80 38 00             	cmpb   $0x0,(%eax)
  4031ac:	0f 84 40 01 00 00    	je     4032f2 <___mingw_opendir+0x162>
  4031b2:	8d 7c 24 1c          	lea    0x1c(%esp),%edi
  4031b6:	c7 44 24 08 04 01 00 	movl   $0x104,0x8(%esp)
  4031bd:	00 
  4031be:	89 fb                	mov    %edi,%ebx
  4031c0:	89 44 24 04          	mov    %eax,0x4(%esp)
  4031c4:	89 3c 24             	mov    %edi,(%esp)
  4031c7:	e8 f4 4d 00 00       	call   407fc0 <__fullpath>
  4031cc:	80 7c 24 1c 00       	cmpb   $0x0,0x1c(%esp)
  4031d1:	74 5d                	je     403230 <___mingw_opendir+0xa0>
  4031d3:	8b 13                	mov    (%ebx),%edx
  4031d5:	83 c3 04             	add    $0x4,%ebx
  4031d8:	8d 82 ff fe fe fe    	lea    -0x1010101(%edx),%eax
  4031de:	f7 d2                	not    %edx
  4031e0:	21 d0                	and    %edx,%eax
  4031e2:	25 80 80 80 80       	and    $0x80808080,%eax
  4031e7:	74 ea                	je     4031d3 <___mingw_opendir+0x43>
  4031e9:	a9 80 80 00 00       	test   $0x8080,%eax
  4031ee:	0f 84 df 00 00 00    	je     4032d3 <___mingw_opendir+0x143>
  4031f4:	00 c0                	add    %al,%al
  4031f6:	83 db 03             	sbb    $0x3,%ebx
  4031f9:	29 fb                	sub    %edi,%ebx
  4031fb:	0f b6 44 1c 1b       	movzbl 0x1b(%esp,%ebx,1),%eax
  403200:	3c 5c                	cmp    $0x5c,%al
  403202:	74 50                	je     403254 <___mingw_opendir+0xc4>
  403204:	3c 2f                	cmp    $0x2f,%al
  403206:	74 4c                	je     403254 <___mingw_opendir+0xc4>
  403208:	b9 5c 00 00 00       	mov    $0x5c,%ecx
  40320d:	66 89 0c 1f          	mov    %cx,(%edi,%ebx,1)
  403211:	89 fb                	mov    %edi,%ebx
  403213:	8b 13                	mov    (%ebx),%edx
  403215:	83 c3 04             	add    $0x4,%ebx
  403218:	8d 82 ff fe fe fe    	lea    -0x1010101(%edx),%eax
  40321e:	f7 d2                	not    %edx
  403220:	21 d0                	and    %edx,%eax
  403222:	25 80 80 80 80       	and    $0x80808080,%eax
  403227:	74 ea                	je     403213 <___mingw_opendir+0x83>
  403229:	eb 1b                	jmp    403246 <___mingw_opendir+0xb6>
  40322b:	90                   	nop
  40322c:	8d 74 26 00          	lea    0x0(%esi,%eiz,1),%esi
  403230:	8b 13                	mov    (%ebx),%edx
  403232:	83 c3 04             	add    $0x4,%ebx
  403235:	8d 82 ff fe fe fe    	lea    -0x1010101(%edx),%eax
  40323b:	f7 d2                	not    %edx
  40323d:	21 d0                	and    %edx,%eax
  40323f:	25 80 80 80 80       	and    $0x80808080,%eax
  403244:	74 ea                	je     403230 <___mingw_opendir+0xa0>
  403246:	a9 80 80 00 00       	test   $0x8080,%eax
  40324b:	74 7b                	je     4032c8 <___mingw_opendir+0x138>
  40324d:	00 c0                	add    %al,%al
  40324f:	83 db 03             	sbb    $0x3,%ebx
  403252:	29 fb                	sub    %edi,%ebx
  403254:	ba 2a 00 00 00       	mov    $0x2a,%edx
  403259:	8d 83 1d 01 00 00    	lea    0x11d(%ebx),%eax
  40325f:	66 89 14 1f          	mov    %dx,(%edi,%ebx,1)
  403263:	89 04 24             	mov    %eax,(%esp)
  403266:	e8 15 4d 00 00       	call   407f80 <_malloc>
  40326b:	85 c0                	test   %eax,%eax
  40326d:	89 c6                	mov    %eax,%esi
  40326f:	0f 84 8c 00 00 00    	je     403301 <___mingw_opendir+0x171>
  403275:	8d a8 18 01 00 00    	lea    0x118(%eax),%ebp
  40327b:	83 c3 02             	add    $0x2,%ebx
  40327e:	89 5c 24 08          	mov    %ebx,0x8(%esp)
  403282:	89 7c 24 04          	mov    %edi,0x4(%esp)
  403286:	89 2c 24             	mov    %ebp,(%esp)
  403289:	e8 da 4c 00 00       	call   407f68 <_memcpy>
  40328e:	89 f2                	mov    %esi,%edx
  403290:	89 e8                	mov    %ebp,%eax
  403292:	e8 29 fe ff ff       	call   4030c0 <_dirent_findfirst>
  403297:	83 f8 ff             	cmp    $0xffffffff,%eax
  40329a:	89 86 10 01 00 00    	mov    %eax,0x110(%esi)
  4032a0:	74 7d                	je     40331f <___mingw_opendir+0x18f>
  4032a2:	b8 10 01 00 00       	mov    $0x110,%eax
  4032a7:	66 89 46 04          	mov    %ax,0x4(%esi)
  4032ab:	89 f0                	mov    %esi,%eax
  4032ad:	c7 86 14 01 00 00 00 	movl   $0x0,0x114(%esi)
  4032b4:	00 00 00 
  4032b7:	c7 06 00 00 00 00    	movl   $0x0,(%esi)
  4032bd:	81 c4 2c 01 00 00    	add    $0x12c,%esp
  4032c3:	5b                   	pop    %ebx
  4032c4:	5e                   	pop    %esi
  4032c5:	5f                   	pop    %edi
  4032c6:	5d                   	pop    %ebp
  4032c7:	c3                   	ret    
  4032c8:	c1 e8 10             	shr    $0x10,%eax
  4032cb:	83 c3 02             	add    $0x2,%ebx
  4032ce:	e9 7a ff ff ff       	jmp    40324d <___mingw_opendir+0xbd>
  4032d3:	c1 e8 10             	shr    $0x10,%eax
  4032d6:	83 c3 02             	add    $0x2,%ebx
  4032d9:	00 c0                	add    %al,%al
  4032db:	83 db 03             	sbb    $0x3,%ebx
  4032de:	29 fb                	sub    %edi,%ebx
  4032e0:	0f b6 44 1c 1b       	movzbl 0x1b(%esp,%ebx,1),%eax
  4032e5:	3c 5c                	cmp    $0x5c,%al
  4032e7:	0f 84 67 ff ff ff    	je     403254 <___mingw_opendir+0xc4>
  4032ed:	e9 12 ff ff ff       	jmp    403204 <___mingw_opendir+0x74>
  4032f2:	e8 a9 4c 00 00       	call   407fa0 <__errno>
  4032f7:	c7 00 02 00 00 00    	movl   $0x2,(%eax)
  4032fd:	31 c0                	xor    %eax,%eax
  4032ff:	eb bc                	jmp    4032bd <___mingw_opendir+0x12d>
  403301:	e8 9a 4c 00 00       	call   407fa0 <__errno>
  403306:	c7 00 0c 00 00 00    	movl   $0xc,(%eax)
  40330c:	31 c0                	xor    %eax,%eax
  40330e:	eb ad                	jmp    4032bd <___mingw_opendir+0x12d>
  403310:	e8 8b 4c 00 00       	call   407fa0 <__errno>
  403315:	c7 00 16 00 00 00    	movl   $0x16,(%eax)
  40331b:	31 c0                	xor    %eax,%eax
  40331d:	eb 9e                	jmp    4032bd <___mingw_opendir+0x12d>
  40331f:	89 34 24             	mov    %esi,(%esp)
  403322:	e8 51 4c 00 00       	call   407f78 <_free>
  403327:	31 c0                	xor    %eax,%eax
  403329:	eb 92                	jmp    4032bd <___mingw_opendir+0x12d>
  40332b:	90                   	nop
  40332c:	8d 74 26 00          	lea    0x0(%esi,%eiz,1),%esi

00403330 <___mingw_readdir>:
  403330:	53                   	push   %ebx
  403331:	83 ec 08             	sub    $0x8,%esp
  403334:	8b 5c 24 10          	mov    0x10(%esp),%ebx
  403338:	85 db                	test   %ebx,%ebx
  40333a:	74 2b                	je     403367 <___mingw_readdir+0x37>
  40333c:	8b 83 14 01 00 00    	mov    0x114(%ebx),%eax
  403342:	8d 50 01             	lea    0x1(%eax),%edx
  403345:	85 c0                	test   %eax,%eax
  403347:	89 93 14 01 00 00    	mov    %edx,0x114(%ebx)
  40334d:	7e 11                	jle    403360 <___mingw_readdir+0x30>
  40334f:	8b 83 10 01 00 00    	mov    0x110(%ebx),%eax
  403355:	89 da                	mov    %ebx,%edx
  403357:	e8 c4 fc ff ff       	call   403020 <_dirent_findnext>
  40335c:	85 c0                	test   %eax,%eax
  40335e:	74 02                	je     403362 <___mingw_readdir+0x32>
  403360:	89 d8                	mov    %ebx,%eax
  403362:	83 c4 08             	add    $0x8,%esp
  403365:	5b                   	pop    %ebx
  403366:	c3                   	ret    
  403367:	e8 34 4c 00 00       	call   407fa0 <__errno>
  40336c:	c7 00 09 00 00 00    	movl   $0x9,(%eax)
  403372:	31 c0                	xor    %eax,%eax
  403374:	eb ec                	jmp    403362 <___mingw_readdir+0x32>
  403376:	8d 76 00             	lea    0x0(%esi),%esi
  403379:	8d bc 27 00 00 00 00 	lea    0x0(%edi,%eiz,1),%edi

00403380 <___mingw_closedir>:
  403380:	55                   	push   %ebp
  403381:	89 e5                	mov    %esp,%ebp
  403383:	53                   	push   %ebx
  403384:	83 ec 14             	sub    $0x14,%esp
  403387:	8b 5d 08             	mov    0x8(%ebp),%ebx
  40338a:	85 db                	test   %ebx,%ebx
  40338c:	74 24                	je     4033b2 <___mingw_closedir+0x32>
  40338e:	8b 83 10 01 00 00    	mov    0x110(%ebx),%eax
  403394:	89 04 24             	mov    %eax,(%esp)
  403397:	e8 d4 4c 00 00       	call   408070 <_FindClose@4>
  40339c:	83 ec 04             	sub    $0x4,%esp
  40339f:	85 c0                	test   %eax,%eax
  4033a1:	74 0f                	je     4033b2 <___mingw_closedir+0x32>
  4033a3:	89 1c 24             	mov    %ebx,(%esp)
  4033a6:	e8 cd 4b 00 00       	call   407f78 <_free>
  4033ab:	31 c0                	xor    %eax,%eax
  4033ad:	8b 5d fc             	mov    -0x4(%ebp),%ebx
  4033b0:	c9                   	leave  
  4033b1:	c3                   	ret    
  4033b2:	e8 e9 4b 00 00       	call   407fa0 <__errno>
  4033b7:	c7 00 09 00 00 00    	movl   $0x9,(%eax)
  4033bd:	b8 ff ff ff ff       	mov    $0xffffffff,%eax
  4033c2:	eb e9                	jmp    4033ad <___mingw_closedir+0x2d>
  4033c4:	8d b6 00 00 00 00    	lea    0x0(%esi),%esi
  4033ca:	8d bf 00 00 00 00    	lea    0x0(%edi),%edi

004033d0 <___mingw_rewinddir>:
  4033d0:	55                   	push   %ebp
  4033d1:	89 e5                	mov    %esp,%ebp
  4033d3:	53                   	push   %ebx
  4033d4:	83 ec 14             	sub    $0x14,%esp
  4033d7:	8b 5d 08             	mov    0x8(%ebp),%ebx
  4033da:	85 db                	test   %ebx,%ebx
  4033dc:	74 15                	je     4033f3 <___mingw_rewinddir+0x23>
  4033de:	8b 83 10 01 00 00    	mov    0x110(%ebx),%eax
  4033e4:	89 04 24             	mov    %eax,(%esp)
  4033e7:	e8 84 4c 00 00       	call   408070 <_FindClose@4>
  4033ec:	83 ec 04             	sub    $0x4,%esp
  4033ef:	85 c0                	test   %eax,%eax
  4033f1:	75 10                	jne    403403 <___mingw_rewinddir+0x33>
  4033f3:	e8 a8 4b 00 00       	call   407fa0 <__errno>
  4033f8:	c7 00 09 00 00 00    	movl   $0x9,(%eax)
  4033fe:	8b 5d fc             	mov    -0x4(%ebp),%ebx
  403401:	c9                   	leave  
  403402:	c3                   	ret    
  403403:	8d 83 18 01 00 00    	lea    0x118(%ebx),%eax
  403409:	89 da                	mov    %ebx,%edx
  40340b:	e8 b0 fc ff ff       	call   4030c0 <_dirent_findfirst>
  403410:	83 f8 ff             	cmp    $0xffffffff,%eax
  403413:	89 83 10 01 00 00    	mov    %eax,0x110(%ebx)
  403419:	74 e3                	je     4033fe <___mingw_rewinddir+0x2e>
  40341b:	c7 83 14 01 00 00 00 	movl   $0x0,0x114(%ebx)
  403422:	00 00 00 
  403425:	8b 5d fc             	mov    -0x4(%ebp),%ebx
  403428:	c9                   	leave  
  403429:	c3                   	ret    
  40342a:	8d b6 00 00 00 00    	lea    0x0(%esi),%esi

00403430 <___mingw_telldir>:
  403430:	83 ec 0c             	sub    $0xc,%esp
  403433:	8b 44 24 10          	mov    0x10(%esp),%eax
  403437:	85 c0                	test   %eax,%eax
  403439:	74 0a                	je     403445 <___mingw_telldir+0x15>
  40343b:	8b 80 14 01 00 00    	mov    0x114(%eax),%eax
  403441:	83 c4 0c             	add    $0xc,%esp
  403444:	c3                   	ret    
  403445:	e8 56 4b 00 00       	call   407fa0 <__errno>
  40344a:	c7 00 09 00 00 00    	movl   $0x9,(%eax)
  403450:	b8 ff ff ff ff       	mov    $0xffffffff,%eax
  403455:	eb ea                	jmp    403441 <___mingw_telldir+0x11>
  403457:	89 f6                	mov    %esi,%esi
  403459:	8d bc 27 00 00 00 00 	lea    0x0(%edi,%eiz,1),%edi

00403460 <___mingw_seekdir>:
  403460:	56                   	push   %esi
  403461:	53                   	push   %ebx
  403462:	83 ec 14             	sub    $0x14,%esp
  403465:	8b 74 24 24          	mov    0x24(%esp),%esi
  403469:	8b 5c 24 20          	mov    0x20(%esp),%ebx
  40346d:	85 f6                	test   %esi,%esi
  40346f:	78 41                	js     4034b2 <___mingw_seekdir+0x52>
  403471:	89 1c 24             	mov    %ebx,(%esp)
  403474:	e8 57 ff ff ff       	call   4033d0 <___mingw_rewinddir>
  403479:	85 f6                	test   %esi,%esi
  40347b:	74 2f                	je     4034ac <___mingw_seekdir+0x4c>
  40347d:	83 bb 10 01 00 00 ff 	cmpl   $0xffffffff,0x110(%ebx)
  403484:	75 13                	jne    403499 <___mingw_seekdir+0x39>
  403486:	eb 24                	jmp    4034ac <___mingw_seekdir+0x4c>
  403488:	8b 83 10 01 00 00    	mov    0x110(%ebx),%eax
  40348e:	89 da                	mov    %ebx,%edx
  403490:	e8 8b fb ff ff       	call   403020 <_dirent_findnext>
  403495:	85 c0                	test   %eax,%eax
  403497:	74 13                	je     4034ac <___mingw_seekdir+0x4c>
  403499:	8b 83 14 01 00 00    	mov    0x114(%ebx),%eax
  40349f:	83 c0 01             	add    $0x1,%eax
  4034a2:	39 c6                	cmp    %eax,%esi
  4034a4:	89 83 14 01 00 00    	mov    %eax,0x114(%ebx)
  4034aa:	7f dc                	jg     403488 <___mingw_seekdir+0x28>
  4034ac:	83 c4 14             	add    $0x14,%esp
  4034af:	5b                   	pop    %ebx
  4034b0:	5e                   	pop    %esi
  4034b1:	c3                   	ret    
  4034b2:	e8 e9 4a 00 00       	call   407fa0 <__errno>
  4034b7:	c7 00 16 00 00 00    	movl   $0x16,(%eax)
  4034bd:	83 c4 14             	add    $0x14,%esp
  4034c0:	5b                   	pop    %ebx
  4034c1:	5e                   	pop    %esi
  4034c2:	c3                   	ret    
  4034c3:	90                   	nop
  4034c4:	90                   	nop
  4034c5:	90                   	nop
  4034c6:	90                   	nop
  4034c7:	90                   	nop
  4034c8:	90                   	nop
  4034c9:	90                   	nop
  4034ca:	90                   	nop
  4034cb:	90                   	nop
  4034cc:	90                   	nop
  4034cd:	90                   	nop
  4034ce:	90                   	nop
  4034cf:	90                   	nop

004034d0 <___mingw_snprintf>:
  4034d0:	83 ec 1c             	sub    $0x1c,%esp
  4034d3:	8d 44 24 2c          	lea    0x2c(%esp),%eax
  4034d7:	89 44 24 0c          	mov    %eax,0xc(%esp)
  4034db:	8b 44 24 28          	mov    0x28(%esp),%eax
  4034df:	89 44 24 08          	mov    %eax,0x8(%esp)
  4034e3:	8b 44 24 24          	mov    0x24(%esp),%eax
  4034e7:	89 44 24 04          	mov    %eax,0x4(%esp)
  4034eb:	8b 44 24 20          	mov    0x20(%esp),%eax
  4034ef:	89 04 24             	mov    %eax,(%esp)
  4034f2:	e8 09 00 00 00       	call   403500 <___mingw_vsnprintf>
  4034f7:	83 c4 1c             	add    $0x1c,%esp
  4034fa:	c3                   	ret    
  4034fb:	90                   	nop
  4034fc:	90                   	nop
  4034fd:	90                   	nop
  4034fe:	90                   	nop
  4034ff:	90                   	nop

00403500 <___mingw_vsnprintf>:
  403500:	56                   	push   %esi
  403501:	53                   	push   %ebx
  403502:	83 ec 24             	sub    $0x24,%esp
  403505:	8b 44 24 34          	mov    0x34(%esp),%eax
  403509:	8b 5c 24 30          	mov    0x30(%esp),%ebx
  40350d:	8b 54 24 38          	mov    0x38(%esp),%edx
  403511:	8b 4c 24 3c          	mov    0x3c(%esp),%ecx
  403515:	85 c0                	test   %eax,%eax
  403517:	74 37                	je     403550 <___mingw_vsnprintf+0x50>
  403519:	8d 70 ff             	lea    -0x1(%eax),%esi
  40351c:	89 54 24 0c          	mov    %edx,0xc(%esp)
  403520:	89 4c 24 10          	mov    %ecx,0x10(%esp)
  403524:	89 74 24 08          	mov    %esi,0x8(%esp)
  403528:	89 5c 24 04          	mov    %ebx,0x4(%esp)
  40352c:	c7 04 24 00 00 00 00 	movl   $0x0,(%esp)
  403533:	e8 e8 15 00 00       	call   404b20 <___mingw_pformat>
  403538:	39 f0                	cmp    %esi,%eax
  40353a:	89 c2                	mov    %eax,%edx
  40353c:	77 0a                	ja     403548 <___mingw_vsnprintf+0x48>
  40353e:	c6 04 13 00          	movb   $0x0,(%ebx,%edx,1)
  403542:	83 c4 24             	add    $0x24,%esp
  403545:	5b                   	pop    %ebx
  403546:	5e                   	pop    %esi
  403547:	c3                   	ret    
  403548:	89 f2                	mov    %esi,%edx
  40354a:	eb f2                	jmp    40353e <___mingw_vsnprintf+0x3e>
  40354c:	8d 74 26 00          	lea    0x0(%esi,%eiz,1),%esi
  403550:	89 5c 24 04          	mov    %ebx,0x4(%esp)
  403554:	89 4c 24 10          	mov    %ecx,0x10(%esp)
  403558:	89 54 24 0c          	mov    %edx,0xc(%esp)
  40355c:	c7 44 24 08 00 00 00 	movl   $0x0,0x8(%esp)
  403563:	00 
  403564:	c7 04 24 00 00 00 00 	movl   $0x0,(%esp)
  40356b:	e8 b0 15 00 00       	call   404b20 <___mingw_pformat>
  403570:	83 c4 24             	add    $0x24,%esp
  403573:	5b                   	pop    %ebx
  403574:	5e                   	pop    %esi
  403575:	c3                   	ret    
  403576:	90                   	nop
  403577:	90                   	nop
  403578:	90                   	nop
  403579:	90                   	nop
  40357a:	90                   	nop
  40357b:	90                   	nop
  40357c:	90                   	nop
  40357d:	90                   	nop
  40357e:	90                   	nop
  40357f:	90                   	nop

00403580 <___pformat_cvt>:
  403580:	53                   	push   %ebx
  403581:	89 c1                	mov    %eax,%ecx
  403583:	83 ec 48             	sub    $0x48,%esp
  403586:	8b 44 24 50          	mov    0x50(%esp),%eax
  40358a:	89 44 24 20          	mov    %eax,0x20(%esp)
  40358e:	8b 44 24 54          	mov    0x54(%esp),%eax
  403592:	89 44 24 24          	mov    %eax,0x24(%esp)
  403596:	8b 44 24 58          	mov    0x58(%esp),%eax
  40359a:	89 44 24 28          	mov    %eax,0x28(%esp)
  40359e:	8b 44 24 5c          	mov    0x5c(%esp),%eax
  4035a2:	db 6c 24 20          	fldt   0x20(%esp)
  4035a6:	89 44 24 2c          	mov    %eax,0x2c(%esp)
  4035aa:	d9 e5                	fxam   
  4035ac:	9b df e0             	fstsw  %ax
  4035af:	dd d8                	fstp   %st(0)
  4035b1:	f6 c4 01             	test   $0x1,%ah
  4035b4:	74 1a                	je     4035d0 <___pformat_cvt+0x50>
  4035b6:	f6 c4 04             	test   $0x4,%ah
  4035b9:	0f 84 91 00 00 00    	je     403650 <___pformat_cvt+0xd0>
  4035bf:	c7 44 24 38 03 00 00 	movl   $0x3,0x38(%esp)
  4035c6:	00 
  4035c7:	0f b7 54 24 28       	movzwl 0x28(%esp),%edx
  4035cc:	31 c0                	xor    %eax,%eax
  4035ce:	eb 14                	jmp    4035e4 <___pformat_cvt+0x64>
  4035d0:	f6 c4 04             	test   $0x4,%ah
  4035d3:	75 5c                	jne    403631 <___pformat_cvt+0xb1>
  4035d5:	0f b7 54 24 28       	movzwl 0x28(%esp),%edx
  4035da:	31 c0                	xor    %eax,%eax
  4035dc:	c7 44 24 38 00 00 00 	movl   $0x0,0x38(%esp)
  4035e3:	00 
  4035e4:	81 e2 00 80 00 00    	and    $0x8000,%edx
  4035ea:	8b 5c 24 68          	mov    0x68(%esp),%ebx
  4035ee:	89 13                	mov    %edx,(%ebx)
  4035f0:	8d 54 24 3c          	lea    0x3c(%esp),%edx
  4035f4:	89 54 24 1c          	mov    %edx,0x1c(%esp)
  4035f8:	8b 54 24 64          	mov    0x64(%esp),%edx
  4035fc:	89 4c 24 10          	mov    %ecx,0x10(%esp)
  403600:	89 44 24 04          	mov    %eax,0x4(%esp)
  403604:	c7 04 24 0c 90 40 00 	movl   $0x40900c,(%esp)
  40360b:	89 54 24 18          	mov    %edx,0x18(%esp)
  40360f:	8b 54 24 60          	mov    0x60(%esp),%edx
  403613:	89 54 24 14          	mov    %edx,0x14(%esp)
  403617:	8d 54 24 38          	lea    0x38(%esp),%edx
  40361b:	89 54 24 0c          	mov    %edx,0xc(%esp)
  40361f:	8d 54 24 20          	lea    0x20(%esp),%edx
  403623:	89 54 24 08          	mov    %edx,0x8(%esp)
  403627:	e8 64 1e 00 00       	call   405490 <___gdtoa>
  40362c:	83 c4 48             	add    $0x48,%esp
  40362f:	5b                   	pop    %ebx
  403630:	c3                   	ret    
  403631:	f6 c4 40             	test   $0x40,%ah
  403634:	74 2a                	je     403660 <___pformat_cvt+0xe0>
  403636:	c7 44 24 38 02 00 00 	movl   $0x2,0x38(%esp)
  40363d:	00 
  40363e:	0f b7 54 24 28       	movzwl 0x28(%esp),%edx
  403643:	b8 c3 bf ff ff       	mov    $0xffffbfc3,%eax
  403648:	eb 9a                	jmp    4035e4 <___pformat_cvt+0x64>
  40364a:	8d b6 00 00 00 00    	lea    0x0(%esi),%esi
  403650:	c7 44 24 38 04 00 00 	movl   $0x4,0x38(%esp)
  403657:	00 
  403658:	31 c0                	xor    %eax,%eax
  40365a:	31 d2                	xor    %edx,%edx
  40365c:	eb 8c                	jmp    4035ea <___pformat_cvt+0x6a>
  40365e:	66 90                	xchg   %ax,%ax
  403660:	0f b7 54 24 28       	movzwl 0x28(%esp),%edx
  403665:	c7 44 24 38 01 00 00 	movl   $0x1,0x38(%esp)
  40366c:	00 
  40366d:	89 d0                	mov    %edx,%eax
  40366f:	25 ff 7f 00 00       	and    $0x7fff,%eax
  403674:	2d 3e 40 00 00       	sub    $0x403e,%eax
  403679:	e9 66 ff ff ff       	jmp    4035e4 <___pformat_cvt+0x64>
  40367e:	66 90                	xchg   %ax,%ax

00403680 <___pformat_putc>:
  403680:	53                   	push   %ebx
  403681:	83 ec 18             	sub    $0x18,%esp
  403684:	8b 4a 04             	mov    0x4(%edx),%ecx
  403687:	f6 c5 20             	test   $0x20,%ch
  40368a:	75 08                	jne    403694 <___pformat_putc+0x14>
  40368c:	8b 5a 18             	mov    0x18(%edx),%ebx
  40368f:	39 5a 1c             	cmp    %ebx,0x1c(%edx)
  403692:	7e 10                	jle    4036a4 <___pformat_putc+0x24>
  403694:	80 e5 10             	and    $0x10,%ch
  403697:	75 17                	jne    4036b0 <___pformat_putc+0x30>
  403699:	8b 1a                	mov    (%edx),%ebx
  40369b:	8b 4a 18             	mov    0x18(%edx),%ecx
  40369e:	88 04 0b             	mov    %al,(%ebx,%ecx,1)
  4036a1:	8b 5a 18             	mov    0x18(%edx),%ebx
  4036a4:	83 c3 01             	add    $0x1,%ebx
  4036a7:	89 5a 18             	mov    %ebx,0x18(%edx)
  4036aa:	83 c4 18             	add    $0x18,%esp
  4036ad:	5b                   	pop    %ebx
  4036ae:	c3                   	ret    
  4036af:	90                   	nop
  4036b0:	8b 0a                	mov    (%edx),%ecx
  4036b2:	89 04 24             	mov    %eax,(%esp)
  4036b5:	89 54 24 0c          	mov    %edx,0xc(%esp)
  4036b9:	89 4c 24 04          	mov    %ecx,0x4(%esp)
  4036bd:	e8 06 49 00 00       	call   407fc8 <_fputc>
  4036c2:	8b 54 24 0c          	mov    0xc(%esp),%edx
  4036c6:	8b 5a 18             	mov    0x18(%edx),%ebx
  4036c9:	83 c3 01             	add    $0x1,%ebx
  4036cc:	89 5a 18             	mov    %ebx,0x18(%edx)
  4036cf:	83 c4 18             	add    $0x18,%esp
  4036d2:	5b                   	pop    %ebx
  4036d3:	c3                   	ret    
  4036d4:	8d b6 00 00 00 00    	lea    0x0(%esi),%esi
  4036da:	8d bf 00 00 00 00    	lea    0x0(%edi),%edi

004036e0 <___pformat_wputchars>:
  4036e0:	55                   	push   %ebp
  4036e1:	57                   	push   %edi
  4036e2:	56                   	push   %esi
  4036e3:	89 d6                	mov    %edx,%esi
  4036e5:	53                   	push   %ebx
  4036e6:	89 cb                	mov    %ecx,%ebx
  4036e8:	83 ec 4c             	sub    $0x4c,%esp
  4036eb:	89 44 24 18          	mov    %eax,0x18(%esp)
  4036ef:	8d 6c 24 30          	lea    0x30(%esp),%ebp
  4036f3:	8d 44 24 2c          	lea    0x2c(%esp),%eax
  4036f7:	89 44 24 08          	mov    %eax,0x8(%esp)
  4036fb:	c7 44 24 04 00 00 00 	movl   $0x0,0x4(%esp)
  403702:	00 
  403703:	89 2c 24             	mov    %ebp,(%esp)
  403706:	e8 b5 32 00 00       	call   4069c0 <_wcrtomb>
  40370b:	8b 43 0c             	mov    0xc(%ebx),%eax
  40370e:	85 c0                	test   %eax,%eax
  403710:	78 08                	js     40371a <___pformat_wputchars+0x3a>
  403712:	39 c6                	cmp    %eax,%esi
  403714:	0f 8f c7 00 00 00    	jg     4037e1 <___pformat_wputchars+0x101>
  40371a:	8b 43 08             	mov    0x8(%ebx),%eax
  40371d:	39 c6                	cmp    %eax,%esi
  40371f:	0f 8d 8c 00 00 00    	jge    4037b1 <___pformat_wputchars+0xd1>
  403725:	29 f0                	sub    %esi,%eax
  403727:	85 c0                	test   %eax,%eax
  403729:	89 43 08             	mov    %eax,0x8(%ebx)
  40372c:	7e 0a                	jle    403738 <___pformat_wputchars+0x58>
  40372e:	f6 43 05 04          	testb  $0x4,0x5(%ebx)
  403732:	0f 84 85 00 00 00    	je     4037bd <___pformat_wputchars+0xdd>
  403738:	89 74 24 1c          	mov    %esi,0x1c(%esp)
  40373c:	8d 74 26 00          	lea    0x0(%esi,%eiz,1),%esi
  403740:	8b 44 24 1c          	mov    0x1c(%esp),%eax
  403744:	85 c0                	test   %eax,%eax
  403746:	7e 54                	jle    40379c <___pformat_wputchars+0xbc>
  403748:	83 44 24 18 02       	addl   $0x2,0x18(%esp)
  40374d:	8d 44 24 2c          	lea    0x2c(%esp),%eax
  403751:	89 44 24 08          	mov    %eax,0x8(%esp)
  403755:	8b 44 24 18          	mov    0x18(%esp),%eax
  403759:	0f b7 40 fe          	movzwl -0x2(%eax),%eax
  40375d:	89 2c 24             	mov    %ebp,(%esp)
  403760:	89 44 24 04          	mov    %eax,0x4(%esp)
  403764:	e8 57 32 00 00       	call   4069c0 <_wcrtomb>
  403769:	85 c0                	test   %eax,%eax
  40376b:	7e 2f                	jle    40379c <___pformat_wputchars+0xbc>
  40376d:	8d 74 05 00          	lea    0x0(%ebp,%eax,1),%esi
  403771:	89 ef                	mov    %ebp,%edi
  403773:	83 c7 01             	add    $0x1,%edi
  403776:	0f be 47 ff          	movsbl -0x1(%edi),%eax
  40377a:	89 da                	mov    %ebx,%edx
  40377c:	e8 ff fe ff ff       	call   403680 <___pformat_putc>
  403781:	39 f7                	cmp    %esi,%edi
  403783:	75 ee                	jne    403773 <___pformat_wputchars+0x93>
  403785:	83 6c 24 1c 01       	subl   $0x1,0x1c(%esp)
  40378a:	eb b4                	jmp    403740 <___pformat_wputchars+0x60>
  40378c:	8d 74 26 00          	lea    0x0(%esi,%eiz,1),%esi
  403790:	89 da                	mov    %ebx,%edx
  403792:	b8 20 00 00 00       	mov    $0x20,%eax
  403797:	e8 e4 fe ff ff       	call   403680 <___pformat_putc>
  40379c:	8b 43 08             	mov    0x8(%ebx),%eax
  40379f:	8d 50 ff             	lea    -0x1(%eax),%edx
  4037a2:	85 c0                	test   %eax,%eax
  4037a4:	89 53 08             	mov    %edx,0x8(%ebx)
  4037a7:	7f e7                	jg     403790 <___pformat_wputchars+0xb0>
  4037a9:	83 c4 4c             	add    $0x4c,%esp
  4037ac:	5b                   	pop    %ebx
  4037ad:	5e                   	pop    %esi
  4037ae:	5f                   	pop    %edi
  4037af:	5d                   	pop    %ebp
  4037b0:	c3                   	ret    
  4037b1:	c7 43 08 ff ff ff ff 	movl   $0xffffffff,0x8(%ebx)
  4037b8:	e9 7b ff ff ff       	jmp    403738 <___pformat_wputchars+0x58>
  4037bd:	83 e8 01             	sub    $0x1,%eax
  4037c0:	89 43 08             	mov    %eax,0x8(%ebx)
  4037c3:	89 da                	mov    %ebx,%edx
  4037c5:	b8 20 00 00 00       	mov    $0x20,%eax
  4037ca:	e8 b1 fe ff ff       	call   403680 <___pformat_putc>
  4037cf:	8b 43 08             	mov    0x8(%ebx),%eax
  4037d2:	8d 50 ff             	lea    -0x1(%eax),%edx
  4037d5:	85 c0                	test   %eax,%eax
  4037d7:	89 53 08             	mov    %edx,0x8(%ebx)
  4037da:	75 e7                	jne    4037c3 <___pformat_wputchars+0xe3>
  4037dc:	e9 57 ff ff ff       	jmp    403738 <___pformat_wputchars+0x58>
  4037e1:	89 c6                	mov    %eax,%esi
  4037e3:	e9 32 ff ff ff       	jmp    40371a <___pformat_wputchars+0x3a>
  4037e8:	90                   	nop
  4037e9:	8d b4 26 00 00 00 00 	lea    0x0(%esi,%eiz,1),%esi

004037f0 <___pformat_putchars>:
  4037f0:	57                   	push   %edi
  4037f1:	89 c7                	mov    %eax,%edi
  4037f3:	8b 41 0c             	mov    0xc(%ecx),%eax
  4037f6:	56                   	push   %esi
  4037f7:	89 d6                	mov    %edx,%esi
  4037f9:	53                   	push   %ebx
  4037fa:	89 cb                	mov    %ecx,%ebx
  4037fc:	85 c0                	test   %eax,%eax
  4037fe:	78 08                	js     403808 <___pformat_putchars+0x18>
  403800:	39 c2                	cmp    %eax,%edx
  403802:	0f 8f 88 00 00 00    	jg     403890 <___pformat_putchars+0xa0>
  403808:	8b 43 08             	mov    0x8(%ebx),%eax
  40380b:	39 c6                	cmp    %eax,%esi
  40380d:	7d 71                	jge    403880 <___pformat_putchars+0x90>
  40380f:	29 f0                	sub    %esi,%eax
  403811:	85 c0                	test   %eax,%eax
  403813:	89 43 08             	mov    %eax,0x8(%ebx)
  403816:	7e 25                	jle    40383d <___pformat_putchars+0x4d>
  403818:	f6 43 05 04          	testb  $0x4,0x5(%ebx)
  40381c:	75 1f                	jne    40383d <___pformat_putchars+0x4d>
  40381e:	83 e8 01             	sub    $0x1,%eax
  403821:	89 43 08             	mov    %eax,0x8(%ebx)
  403824:	89 da                	mov    %ebx,%edx
  403826:	b8 20 00 00 00       	mov    $0x20,%eax
  40382b:	e8 50 fe ff ff       	call   403680 <___pformat_putc>
  403830:	8b 43 08             	mov    0x8(%ebx),%eax
  403833:	8d 50 ff             	lea    -0x1(%eax),%edx
  403836:	85 c0                	test   %eax,%eax
  403838:	89 53 08             	mov    %edx,0x8(%ebx)
  40383b:	75 e7                	jne    403824 <___pformat_putchars+0x34>
  40383d:	85 f6                	test   %esi,%esi
  40383f:	74 2c                	je     40386d <___pformat_putchars+0x7d>
  403841:	83 c7 01             	add    $0x1,%edi
  403844:	0f be 47 ff          	movsbl -0x1(%edi),%eax
  403848:	89 da                	mov    %ebx,%edx
  40384a:	e8 31 fe ff ff       	call   403680 <___pformat_putc>
  40384f:	83 ee 01             	sub    $0x1,%esi
  403852:	75 ed                	jne    403841 <___pformat_putchars+0x51>
  403854:	8b 43 08             	mov    0x8(%ebx),%eax
  403857:	8d 50 ff             	lea    -0x1(%eax),%edx
  40385a:	85 c0                	test   %eax,%eax
  40385c:	89 53 08             	mov    %edx,0x8(%ebx)
  40385f:	7e 19                	jle    40387a <___pformat_putchars+0x8a>
  403861:	89 da                	mov    %ebx,%edx
  403863:	b8 20 00 00 00       	mov    $0x20,%eax
  403868:	e8 13 fe ff ff       	call   403680 <___pformat_putc>
  40386d:	8b 43 08             	mov    0x8(%ebx),%eax
  403870:	8d 50 ff             	lea    -0x1(%eax),%edx
  403873:	85 c0                	test   %eax,%eax
  403875:	89 53 08             	mov    %edx,0x8(%ebx)
  403878:	7f e7                	jg     403861 <___pformat_putchars+0x71>
  40387a:	5b                   	pop    %ebx
  40387b:	5e                   	pop    %esi
  40387c:	5f                   	pop    %edi
  40387d:	c3                   	ret    
  40387e:	66 90                	xchg   %ax,%ax
  403880:	c7 43 08 ff ff ff ff 	movl   $0xffffffff,0x8(%ebx)
  403887:	eb b4                	jmp    40383d <___pformat_putchars+0x4d>
  403889:	8d b4 26 00 00 00 00 	lea    0x0(%esi,%eiz,1),%esi
  403890:	89 c6                	mov    %eax,%esi
  403892:	e9 71 ff ff ff       	jmp    403808 <___pformat_putchars+0x18>
  403897:	89 f6                	mov    %esi,%esi
  403899:	8d bc 27 00 00 00 00 	lea    0x0(%edi,%eiz,1),%edi

004038a0 <___pformat_emit_inf_or_nan>:
  4038a0:	55                   	push   %ebp
  4038a1:	57                   	push   %edi
  4038a2:	56                   	push   %esi
  4038a3:	53                   	push   %ebx
  4038a4:	83 ec 1c             	sub    $0x1c,%esp
  4038a7:	85 c0                	test   %eax,%eax
  4038a9:	c7 41 0c ff ff ff ff 	movl   $0xffffffff,0xc(%ecx)
  4038b0:	74 3e                	je     4038f0 <___pformat_emit_inf_or_nan+0x50>
  4038b2:	8b 69 04             	mov    0x4(%ecx),%ebp
  4038b5:	8d 7c 24 0d          	lea    0xd(%esp),%edi
  4038b9:	c6 44 24 0c 2d       	movb   $0x2d,0xc(%esp)
  4038be:	8d 44 24 0c          	lea    0xc(%esp),%eax
  4038c2:	83 e5 20             	and    $0x20,%ebp
  4038c5:	31 f6                	xor    %esi,%esi
  4038c7:	0f b6 1c 32          	movzbl (%edx,%esi,1),%ebx
  4038cb:	83 e3 df             	and    $0xffffffdf,%ebx
  4038ce:	09 eb                	or     %ebp,%ebx
  4038d0:	88 1c 37             	mov    %bl,(%edi,%esi,1)
  4038d3:	83 c6 01             	add    $0x1,%esi
  4038d6:	83 fe 03             	cmp    $0x3,%esi
  4038d9:	75 ec                	jne    4038c7 <___pformat_emit_inf_or_nan+0x27>
  4038db:	8d 57 03             	lea    0x3(%edi),%edx
  4038de:	29 c2                	sub    %eax,%edx
  4038e0:	e8 0b ff ff ff       	call   4037f0 <___pformat_putchars>
  4038e5:	83 c4 1c             	add    $0x1c,%esp
  4038e8:	5b                   	pop    %ebx
  4038e9:	5e                   	pop    %esi
  4038ea:	5f                   	pop    %edi
  4038eb:	5d                   	pop    %ebp
  4038ec:	c3                   	ret    
  4038ed:	8d 76 00             	lea    0x0(%esi),%esi
  4038f0:	8b 69 04             	mov    0x4(%ecx),%ebp
  4038f3:	f7 c5 00 01 00 00    	test   $0x100,%ebp
  4038f9:	74 15                	je     403910 <___pformat_emit_inf_or_nan+0x70>
  4038fb:	c6 44 24 0c 2b       	movb   $0x2b,0xc(%esp)
  403900:	8d 7c 24 0d          	lea    0xd(%esp),%edi
  403904:	8d 44 24 0c          	lea    0xc(%esp),%eax
  403908:	eb b8                	jmp    4038c2 <___pformat_emit_inf_or_nan+0x22>
  40390a:	8d b6 00 00 00 00    	lea    0x0(%esi),%esi
  403910:	f7 c5 40 00 00 00    	test   $0x40,%ebp
  403916:	74 0f                	je     403927 <___pformat_emit_inf_or_nan+0x87>
  403918:	c6 44 24 0c 20       	movb   $0x20,0xc(%esp)
  40391d:	8d 7c 24 0d          	lea    0xd(%esp),%edi
  403921:	8d 44 24 0c          	lea    0xc(%esp),%eax
  403925:	eb 9b                	jmp    4038c2 <___pformat_emit_inf_or_nan+0x22>
  403927:	8d 44 24 0c          	lea    0xc(%esp),%eax
  40392b:	89 c7                	mov    %eax,%edi
  40392d:	eb 93                	jmp    4038c2 <___pformat_emit_inf_or_nan+0x22>
  40392f:	90                   	nop

00403930 <___pformat_int>:
  403930:	55                   	push   %ebp
  403931:	89 e5                	mov    %esp,%ebp
  403933:	57                   	push   %edi
  403934:	89 d7                	mov    %edx,%edi
  403936:	56                   	push   %esi
  403937:	89 c6                	mov    %eax,%esi
  403939:	53                   	push   %ebx
  40393a:	89 cb                	mov    %ecx,%ebx
  40393c:	83 ec 2c             	sub    $0x2c,%esp
  40393f:	89 55 dc             	mov    %edx,-0x24(%ebp)
  403942:	8b 51 0c             	mov    0xc(%ecx),%edx
  403945:	89 45 d8             	mov    %eax,-0x28(%ebp)
  403948:	8b 49 08             	mov    0x8(%ecx),%ecx
  40394b:	89 d0                	mov    %edx,%eax
  40394d:	c1 f8 1f             	sar    $0x1f,%eax
  403950:	f7 d0                	not    %eax
  403952:	21 d0                	and    %edx,%eax
  403954:	83 c0 17             	add    $0x17,%eax
  403957:	39 c8                	cmp    %ecx,%eax
  403959:	7d 02                	jge    40395d <___pformat_int+0x2d>
  40395b:	89 c8                	mov    %ecx,%eax
  40395d:	83 c0 0f             	add    $0xf,%eax
  403960:	83 e0 f0             	and    $0xfffffff0,%eax
  403963:	e8 a8 e5 ff ff       	call   401f10 <___chkstk_ms>
  403968:	29 c4                	sub    %eax,%esp
  40396a:	8d 44 24 10          	lea    0x10(%esp),%eax
  40396e:	89 45 e4             	mov    %eax,-0x1c(%ebp)
  403971:	8b 43 04             	mov    0x4(%ebx),%eax
  403974:	a8 80                	test   $0x80,%al
  403976:	74 0d                	je     403985 <___pformat_int+0x55>
  403978:	85 ff                	test   %edi,%edi
  40397a:	0f 88 b0 01 00 00    	js     403b30 <___pformat_int+0x200>
  403980:	24 7f                	and    $0x7f,%al
  403982:	89 43 04             	mov    %eax,0x4(%ebx)
  403985:	8b 4d dc             	mov    -0x24(%ebp),%ecx
  403988:	8b 7d d8             	mov    -0x28(%ebp),%edi
  40398b:	8b 75 e4             	mov    -0x1c(%ebp),%esi
  40398e:	89 c8                	mov    %ecx,%eax
  403990:	09 f8                	or     %edi,%eax
  403992:	74 5d                	je     4039f1 <___pformat_int+0xc1>
  403994:	89 5d d8             	mov    %ebx,-0x28(%ebp)
  403997:	89 cb                	mov    %ecx,%ebx
  403999:	8d b4 26 00 00 00 00 	lea    0x0(%esi,%eiz,1),%esi
  4039a0:	89 3c 24             	mov    %edi,(%esp)
  4039a3:	83 c6 01             	add    $0x1,%esi
  4039a6:	89 5c 24 04          	mov    %ebx,0x4(%esp)
  4039aa:	c7 44 24 08 0a 00 00 	movl   $0xa,0x8(%esp)
  4039b1:	00 
  4039b2:	c7 44 24 0c 00 00 00 	movl   $0x0,0xc(%esp)
  4039b9:	00 
  4039ba:	e8 e1 46 00 00       	call   4080a0 <___umoddi3>
  4039bf:	83 c0 30             	add    $0x30,%eax
  4039c2:	88 46 ff             	mov    %al,-0x1(%esi)
  4039c5:	89 3c 24             	mov    %edi,(%esp)
  4039c8:	89 5c 24 04          	mov    %ebx,0x4(%esp)
  4039cc:	c7 44 24 08 0a 00 00 	movl   $0xa,0x8(%esp)
  4039d3:	00 
  4039d4:	c7 44 24 0c 00 00 00 	movl   $0x0,0xc(%esp)
  4039db:	00 
  4039dc:	e8 0f 48 00 00       	call   4081f0 <___udivdi3>
  4039e1:	89 c7                	mov    %eax,%edi
  4039e3:	89 d0                	mov    %edx,%eax
  4039e5:	09 f8                	or     %edi,%eax
  4039e7:	89 d3                	mov    %edx,%ebx
  4039e9:	75 b5                	jne    4039a0 <___pformat_int+0x70>
  4039eb:	8b 5d d8             	mov    -0x28(%ebp),%ebx
  4039ee:	8b 53 0c             	mov    0xc(%ebx),%edx
  4039f1:	85 d2                	test   %edx,%edx
  4039f3:	89 f7                	mov    %esi,%edi
  4039f5:	7e 19                	jle    403a10 <___pformat_int+0xe0>
  4039f7:	8b 45 e4             	mov    -0x1c(%ebp),%eax
  4039fa:	29 f0                	sub    %esi,%eax
  4039fc:	01 c2                	add    %eax,%edx
  4039fe:	85 d2                	test   %edx,%edx
  403a00:	7e 0e                	jle    403a10 <___pformat_int+0xe0>
  403a02:	8d 3c 16             	lea    (%esi,%edx,1),%edi
  403a05:	83 c6 01             	add    $0x1,%esi
  403a08:	39 fe                	cmp    %edi,%esi
  403a0a:	c6 46 ff 30          	movb   $0x30,-0x1(%esi)
  403a0e:	75 f5                	jne    403a05 <___pformat_int+0xd5>
  403a10:	3b 7d e4             	cmp    -0x1c(%ebp),%edi
  403a13:	0f 84 29 01 00 00    	je     403b42 <___pformat_int+0x212>
  403a19:	8b 43 08             	mov    0x8(%ebx),%eax
  403a1c:	85 c0                	test   %eax,%eax
  403a1e:	7e 59                	jle    403a79 <___pformat_int+0x149>
  403a20:	8b 55 e4             	mov    -0x1c(%ebp),%edx
  403a23:	29 fa                	sub    %edi,%edx
  403a25:	01 c2                	add    %eax,%edx
  403a27:	8b 43 04             	mov    0x4(%ebx),%eax
  403a2a:	85 d2                	test   %edx,%edx
  403a2c:	89 53 08             	mov    %edx,0x8(%ebx)
  403a2f:	7e 4b                	jle    403a7c <___pformat_int+0x14c>
  403a31:	a9 c0 01 00 00       	test   $0x1c0,%eax
  403a36:	74 06                	je     403a3e <___pformat_int+0x10e>
  403a38:	83 ea 01             	sub    $0x1,%edx
  403a3b:	89 53 08             	mov    %edx,0x8(%ebx)
  403a3e:	8b 53 0c             	mov    0xc(%ebx),%edx
  403a41:	85 d2                	test   %edx,%edx
  403a43:	0f 88 a7 00 00 00    	js     403af0 <___pformat_int+0x1c0>
  403a49:	f6 c4 04             	test   $0x4,%ah
  403a4c:	75 2e                	jne    403a7c <___pformat_int+0x14c>
  403a4e:	8b 53 08             	mov    0x8(%ebx),%edx
  403a51:	8d 4a ff             	lea    -0x1(%edx),%ecx
  403a54:	85 d2                	test   %edx,%edx
  403a56:	89 4b 08             	mov    %ecx,0x8(%ebx)
  403a59:	7e 21                	jle    403a7c <___pformat_int+0x14c>
  403a5b:	90                   	nop
  403a5c:	8d 74 26 00          	lea    0x0(%esi,%eiz,1),%esi
  403a60:	89 da                	mov    %ebx,%edx
  403a62:	b8 20 00 00 00       	mov    $0x20,%eax
  403a67:	e8 14 fc ff ff       	call   403680 <___pformat_putc>
  403a6c:	8b 43 08             	mov    0x8(%ebx),%eax
  403a6f:	8d 50 ff             	lea    -0x1(%eax),%edx
  403a72:	85 c0                	test   %eax,%eax
  403a74:	89 53 08             	mov    %edx,0x8(%ebx)
  403a77:	7f e7                	jg     403a60 <___pformat_int+0x130>
  403a79:	8b 43 04             	mov    0x4(%ebx),%eax
  403a7c:	a8 80                	test   $0x80,%al
  403a7e:	74 51                	je     403ad1 <___pformat_int+0x1a1>
  403a80:	8d 77 01             	lea    0x1(%edi),%esi
  403a83:	c6 07 2d             	movb   $0x2d,(%edi)
  403a86:	39 75 e4             	cmp    %esi,-0x1c(%ebp)
  403a89:	8b 7d e4             	mov    -0x1c(%ebp),%edi
  403a8c:	73 2e                	jae    403abc <___pformat_int+0x18c>
  403a8e:	66 90                	xchg   %ax,%ax
  403a90:	83 ee 01             	sub    $0x1,%esi
  403a93:	0f be 06             	movsbl (%esi),%eax
  403a96:	89 da                	mov    %ebx,%edx
  403a98:	e8 e3 fb ff ff       	call   403680 <___pformat_putc>
  403a9d:	39 fe                	cmp    %edi,%esi
  403a9f:	75 ef                	jne    403a90 <___pformat_int+0x160>
  403aa1:	8b 43 08             	mov    0x8(%ebx),%eax
  403aa4:	8d 50 ff             	lea    -0x1(%eax),%edx
  403aa7:	85 c0                	test   %eax,%eax
  403aa9:	89 53 08             	mov    %edx,0x8(%ebx)
  403aac:	7e 1b                	jle    403ac9 <___pformat_int+0x199>
  403aae:	66 90                	xchg   %ax,%ax
  403ab0:	89 da                	mov    %ebx,%edx
  403ab2:	b8 20 00 00 00       	mov    $0x20,%eax
  403ab7:	e8 c4 fb ff ff       	call   403680 <___pformat_putc>
  403abc:	8b 43 08             	mov    0x8(%ebx),%eax
  403abf:	8d 50 ff             	lea    -0x1(%eax),%edx
  403ac2:	85 c0                	test   %eax,%eax
  403ac4:	89 53 08             	mov    %edx,0x8(%ebx)
  403ac7:	7f e7                	jg     403ab0 <___pformat_int+0x180>
  403ac9:	8d 65 f4             	lea    -0xc(%ebp),%esp
  403acc:	5b                   	pop    %ebx
  403acd:	5e                   	pop    %esi
  403ace:	5f                   	pop    %edi
  403acf:	5d                   	pop    %ebp
  403ad0:	c3                   	ret    
  403ad1:	f6 c4 01             	test   $0x1,%ah
  403ad4:	74 0a                	je     403ae0 <___pformat_int+0x1b0>
  403ad6:	8d 77 01             	lea    0x1(%edi),%esi
  403ad9:	c6 07 2b             	movb   $0x2b,(%edi)
  403adc:	eb a8                	jmp    403a86 <___pformat_int+0x156>
  403ade:	66 90                	xchg   %ax,%ax
  403ae0:	a8 40                	test   $0x40,%al
  403ae2:	89 fe                	mov    %edi,%esi
  403ae4:	74 a0                	je     403a86 <___pformat_int+0x156>
  403ae6:	83 c6 01             	add    $0x1,%esi
  403ae9:	c6 07 20             	movb   $0x20,(%edi)
  403aec:	eb 98                	jmp    403a86 <___pformat_int+0x156>
  403aee:	66 90                	xchg   %ax,%ax
  403af0:	89 c2                	mov    %eax,%edx
  403af2:	81 e2 00 06 00 00    	and    $0x600,%edx
  403af8:	81 fa 00 02 00 00    	cmp    $0x200,%edx
  403afe:	0f 85 45 ff ff ff    	jne    403a49 <___pformat_int+0x119>
  403b04:	8b 53 08             	mov    0x8(%ebx),%edx
  403b07:	8d 4a ff             	lea    -0x1(%edx),%ecx
  403b0a:	85 d2                	test   %edx,%edx
  403b0c:	89 4b 08             	mov    %ecx,0x8(%ebx)
  403b0f:	0f 8e 67 ff ff ff    	jle    403a7c <___pformat_int+0x14c>
  403b15:	83 c7 01             	add    $0x1,%edi
  403b18:	c6 47 ff 30          	movb   $0x30,-0x1(%edi)
  403b1c:	8b 43 08             	mov    0x8(%ebx),%eax
  403b1f:	8d 50 ff             	lea    -0x1(%eax),%edx
  403b22:	85 c0                	test   %eax,%eax
  403b24:	89 53 08             	mov    %edx,0x8(%ebx)
  403b27:	7f ec                	jg     403b15 <___pformat_int+0x1e5>
  403b29:	e9 4b ff ff ff       	jmp    403a79 <___pformat_int+0x149>
  403b2e:	66 90                	xchg   %ax,%ax
  403b30:	f7 de                	neg    %esi
  403b32:	83 d7 00             	adc    $0x0,%edi
  403b35:	f7 df                	neg    %edi
  403b37:	89 75 d8             	mov    %esi,-0x28(%ebp)
  403b3a:	89 7d dc             	mov    %edi,-0x24(%ebp)
  403b3d:	e9 43 fe ff ff       	jmp    403985 <___pformat_int+0x55>
  403b42:	8b 4b 0c             	mov    0xc(%ebx),%ecx
  403b45:	85 c9                	test   %ecx,%ecx
  403b47:	0f 84 cc fe ff ff    	je     403a19 <___pformat_int+0xe9>
  403b4d:	c6 07 30             	movb   $0x30,(%edi)
  403b50:	83 c7 01             	add    $0x1,%edi
  403b53:	e9 c1 fe ff ff       	jmp    403a19 <___pformat_int+0xe9>
  403b58:	90                   	nop
  403b59:	8d b4 26 00 00 00 00 	lea    0x0(%esi,%eiz,1),%esi

00403b60 <___pformat_xint>:
  403b60:	55                   	push   %ebp
  403b61:	89 e5                	mov    %esp,%ebp
  403b63:	57                   	push   %edi
  403b64:	89 cf                	mov    %ecx,%edi
  403b66:	56                   	push   %esi
  403b67:	89 d6                	mov    %edx,%esi
  403b69:	53                   	push   %ebx
  403b6a:	83 ec 2c             	sub    $0x2c,%esp
  403b6d:	89 55 dc             	mov    %edx,-0x24(%ebp)
  403b70:	31 d2                	xor    %edx,%edx
  403b72:	83 f8 6f             	cmp    $0x6f,%eax
  403b75:	0f 94 c2             	sete   %dl
  403b78:	83 ea 01             	sub    $0x1,%edx
  403b7b:	83 e2 fa             	and    $0xfffffffa,%edx
  403b7e:	89 4d d4             	mov    %ecx,-0x2c(%ebp)
  403b81:	31 c9                	xor    %ecx,%ecx
  403b83:	83 f8 6f             	cmp    $0x6f,%eax
  403b86:	0f 95 c1             	setne  %cl
  403b89:	89 45 d8             	mov    %eax,-0x28(%ebp)
  403b8c:	89 c8                	mov    %ecx,%eax
  403b8e:	89 45 e4             	mov    %eax,-0x1c(%ebp)
  403b91:	8b 45 08             	mov    0x8(%ebp),%eax
  403b94:	8d 1c cd 07 00 00 00 	lea    0x7(,%ecx,8),%ebx
  403b9b:	89 5d d0             	mov    %ebx,-0x30(%ebp)
  403b9e:	8b 4d 08             	mov    0x8(%ebp),%ecx
  403ba1:	83 45 e4 03          	addl   $0x3,-0x1c(%ebp)
  403ba5:	8b 58 0c             	mov    0xc(%eax),%ebx
  403ba8:	8b 49 08             	mov    0x8(%ecx),%ecx
  403bab:	89 d8                	mov    %ebx,%eax
  403bad:	c1 f8 1f             	sar    $0x1f,%eax
  403bb0:	f7 d0                	not    %eax
  403bb2:	21 d8                	and    %ebx,%eax
  403bb4:	8d 44 02 18          	lea    0x18(%edx,%eax,1),%eax
  403bb8:	39 c8                	cmp    %ecx,%eax
  403bba:	7d 02                	jge    403bbe <___pformat_xint+0x5e>
  403bbc:	89 c8                	mov    %ecx,%eax
  403bbe:	83 c0 0f             	add    $0xf,%eax
  403bc1:	83 e0 f0             	and    $0xfffffff0,%eax
  403bc4:	e8 47 e3 ff ff       	call   401f10 <___chkstk_ms>
  403bc9:	29 c4                	sub    %eax,%esp
  403bcb:	8b 45 d4             	mov    -0x2c(%ebp),%eax
  403bce:	0b 45 dc             	or     -0x24(%ebp),%eax
  403bd1:	89 65 e0             	mov    %esp,-0x20(%ebp)
  403bd4:	0f 84 4a 02 00 00    	je     403e24 <___pformat_xint+0x2c4>
  403bda:	0f b6 4d d8          	movzbl -0x28(%ebp),%ecx
  403bde:	89 e0                	mov    %esp,%eax
  403be0:	0f b6 5d d0          	movzbl -0x30(%ebp),%ebx
  403be4:	83 e1 20             	and    $0x20,%ecx
  403be7:	88 4d dc             	mov    %cl,-0x24(%ebp)
  403bea:	eb 1f                	jmp    403c0b <___pformat_xint+0xab>
  403bec:	8d 74 26 00          	lea    0x0(%esi,%eiz,1),%esi
  403bf0:	88 48 ff             	mov    %cl,-0x1(%eax)
  403bf3:	0f b6 4d e4          	movzbl -0x1c(%ebp),%ecx
  403bf7:	0f ad fe             	shrd   %cl,%edi,%esi
  403bfa:	d3 ef                	shr    %cl,%edi
  403bfc:	f6 c1 20             	test   $0x20,%cl
  403bff:	74 04                	je     403c05 <___pformat_xint+0xa5>
  403c01:	89 fe                	mov    %edi,%esi
  403c03:	31 ff                	xor    %edi,%edi
  403c05:	89 f9                	mov    %edi,%ecx
  403c07:	09 f1                	or     %esi,%ecx
  403c09:	74 1a                	je     403c25 <___pformat_xint+0xc5>
  403c0b:	89 f2                	mov    %esi,%edx
  403c0d:	83 c0 01             	add    $0x1,%eax
  403c10:	21 da                	and    %ebx,%edx
  403c12:	8d 4a 30             	lea    0x30(%edx),%ecx
  403c15:	80 f9 39             	cmp    $0x39,%cl
  403c18:	7e d6                	jle    403bf0 <___pformat_xint+0x90>
  403c1a:	83 c2 37             	add    $0x37,%edx
  403c1d:	0a 55 dc             	or     -0x24(%ebp),%dl
  403c20:	88 50 ff             	mov    %dl,-0x1(%eax)
  403c23:	eb ce                	jmp    403bf3 <___pformat_xint+0x93>
  403c25:	39 45 e0             	cmp    %eax,-0x20(%ebp)
  403c28:	0f 84 f0 01 00 00    	je     403e1e <___pformat_xint+0x2be>
  403c2e:	8b 7d 08             	mov    0x8(%ebp),%edi
  403c31:	8b 5f 0c             	mov    0xc(%edi),%ebx
  403c34:	85 db                	test   %ebx,%ebx
  403c36:	0f 8e a5 01 00 00    	jle    403de1 <___pformat_xint+0x281>
  403c3c:	8b 4d e0             	mov    -0x20(%ebp),%ecx
  403c3f:	29 c1                	sub    %eax,%ecx
  403c41:	01 cb                	add    %ecx,%ebx
  403c43:	85 db                	test   %ebx,%ebx
  403c45:	0f 8e 96 01 00 00    	jle    403de1 <___pformat_xint+0x281>
  403c4b:	8d 3c 18             	lea    (%eax,%ebx,1),%edi
  403c4e:	66 90                	xchg   %ax,%ax
  403c50:	83 c0 01             	add    $0x1,%eax
  403c53:	39 f8                	cmp    %edi,%eax
  403c55:	c6 40 ff 30          	movb   $0x30,-0x1(%eax)
  403c59:	75 f5                	jne    403c50 <___pformat_xint+0xf0>
  403c5b:	3b 7d e0             	cmp    -0x20(%ebp),%edi
  403c5e:	0f 84 a1 01 00 00    	je     403e05 <___pformat_xint+0x2a5>
  403c64:	8b 45 08             	mov    0x8(%ebp),%eax
  403c67:	8b 70 08             	mov    0x8(%eax),%esi
  403c6a:	89 f8                	mov    %edi,%eax
  403c6c:	2b 45 e0             	sub    -0x20(%ebp),%eax
  403c6f:	39 c6                	cmp    %eax,%esi
  403c71:	0f 8e a9 00 00 00    	jle    403d20 <___pformat_xint+0x1c0>
  403c77:	29 c6                	sub    %eax,%esi
  403c79:	8b 45 08             	mov    0x8(%ebp),%eax
  403c7c:	85 f6                	test   %esi,%esi
  403c7e:	89 70 08             	mov    %esi,0x8(%eax)
  403c81:	7e 21                	jle    403ca4 <___pformat_xint+0x144>
  403c83:	83 7d d8 6f          	cmpl   $0x6f,-0x28(%ebp)
  403c87:	74 0d                	je     403c96 <___pformat_xint+0x136>
  403c89:	8b 45 08             	mov    0x8(%ebp),%eax
  403c8c:	f6 40 05 08          	testb  $0x8,0x5(%eax)
  403c90:	0f 85 00 01 00 00    	jne    403d96 <___pformat_xint+0x236>
  403c96:	8b 45 08             	mov    0x8(%ebp),%eax
  403c99:	8b 58 0c             	mov    0xc(%eax),%ebx
  403c9c:	85 db                	test   %ebx,%ebx
  403c9e:	0f 88 09 01 00 00    	js     403dad <___pformat_xint+0x24d>
  403ca4:	8d 46 ff             	lea    -0x1(%esi),%eax
  403ca7:	89 45 e4             	mov    %eax,-0x1c(%ebp)
  403caa:	8b 45 e4             	mov    -0x1c(%ebp),%eax
  403cad:	83 7d d8 6f          	cmpl   $0x6f,-0x28(%ebp)
  403cb1:	89 c3                	mov    %eax,%ebx
  403cb3:	74 0d                	je     403cc2 <___pformat_xint+0x162>
  403cb5:	8b 45 08             	mov    0x8(%ebp),%eax
  403cb8:	f6 40 05 08          	testb  $0x8,0x5(%eax)
  403cbc:	0f 85 be 00 00 00    	jne    403d80 <___pformat_xint+0x220>
  403cc2:	85 f6                	test   %esi,%esi
  403cc4:	7e 09                	jle    403ccf <___pformat_xint+0x16f>
  403cc6:	8b 45 08             	mov    0x8(%ebp),%eax
  403cc9:	f6 40 05 04          	testb  $0x4,0x5(%eax)
  403ccd:	74 71                	je     403d40 <___pformat_xint+0x1e0>
  403ccf:	3b 7d e0             	cmp    -0x20(%ebp),%edi
  403cd2:	76 25                	jbe    403cf9 <___pformat_xint+0x199>
  403cd4:	89 75 e4             	mov    %esi,-0x1c(%ebp)
  403cd7:	8b 75 e0             	mov    -0x20(%ebp),%esi
  403cda:	89 5d e0             	mov    %ebx,-0x20(%ebp)
  403cdd:	89 fb                	mov    %edi,%ebx
  403cdf:	8b 7d 08             	mov    0x8(%ebp),%edi
  403ce2:	83 eb 01             	sub    $0x1,%ebx
  403ce5:	0f be 03             	movsbl (%ebx),%eax
  403ce8:	89 fa                	mov    %edi,%edx
  403cea:	e8 91 f9 ff ff       	call   403680 <___pformat_putc>
  403cef:	39 f3                	cmp    %esi,%ebx
  403cf1:	75 ef                	jne    403ce2 <___pformat_xint+0x182>
  403cf3:	8b 75 e4             	mov    -0x1c(%ebp),%esi
  403cf6:	8b 5d e0             	mov    -0x20(%ebp),%ebx
  403cf9:	85 f6                	test   %esi,%esi
  403cfb:	7e 19                	jle    403d16 <___pformat_xint+0x1b6>
  403cfd:	8b 75 08             	mov    0x8(%ebp),%esi
  403d00:	b8 20 00 00 00       	mov    $0x20,%eax
  403d05:	83 eb 01             	sub    $0x1,%ebx
  403d08:	89 f2                	mov    %esi,%edx
  403d0a:	e8 71 f9 ff ff       	call   403680 <___pformat_putc>
  403d0f:	8d 43 01             	lea    0x1(%ebx),%eax
  403d12:	85 c0                	test   %eax,%eax
  403d14:	7f ea                	jg     403d00 <___pformat_xint+0x1a0>
  403d16:	8d 65 f4             	lea    -0xc(%ebp),%esp
  403d19:	5b                   	pop    %ebx
  403d1a:	5e                   	pop    %esi
  403d1b:	5f                   	pop    %edi
  403d1c:	5d                   	pop    %ebp
  403d1d:	c3                   	ret    
  403d1e:	66 90                	xchg   %ax,%ax
  403d20:	8b 45 08             	mov    0x8(%ebp),%eax
  403d23:	be ff ff ff ff       	mov    $0xffffffff,%esi
  403d28:	c7 45 e4 fe ff ff ff 	movl   $0xfffffffe,-0x1c(%ebp)
  403d2f:	c7 40 08 ff ff ff ff 	movl   $0xffffffff,0x8(%eax)
  403d36:	e9 6f ff ff ff       	jmp    403caa <___pformat_xint+0x14a>
  403d3b:	90                   	nop
  403d3c:	8d 74 26 00          	lea    0x0(%esi,%eiz,1),%esi
  403d40:	8b 5d e4             	mov    -0x1c(%ebp),%ebx
  403d43:	89 c6                	mov    %eax,%esi
  403d45:	b8 20 00 00 00       	mov    $0x20,%eax
  403d4a:	83 eb 01             	sub    $0x1,%ebx
  403d4d:	89 f2                	mov    %esi,%edx
  403d4f:	e8 2c f9 ff ff       	call   403680 <___pformat_putc>
  403d54:	8d 43 01             	lea    0x1(%ebx),%eax
  403d57:	85 c0                	test   %eax,%eax
  403d59:	7f ea                	jg     403d45 <___pformat_xint+0x1e5>
  403d5b:	8b 4d e4             	mov    -0x1c(%ebp),%ecx
  403d5e:	89 c8                	mov    %ecx,%eax
  403d60:	c1 f8 1f             	sar    $0x1f,%eax
  403d63:	f7 d0                	not    %eax
  403d65:	8d 71 ff             	lea    -0x1(%ecx),%esi
  403d68:	21 c8                	and    %ecx,%eax
  403d6a:	29 c6                	sub    %eax,%esi
  403d6c:	8d 5e ff             	lea    -0x1(%esi),%ebx
  403d6f:	e9 5b ff ff ff       	jmp    403ccf <___pformat_xint+0x16f>
  403d74:	83 ee 03             	sub    $0x3,%esi
  403d77:	89 75 e4             	mov    %esi,-0x1c(%ebp)
  403d7a:	89 c6                	mov    %eax,%esi
  403d7c:	8d 74 26 00          	lea    0x0(%esi,%eiz,1),%esi
  403d80:	0f b6 45 d8          	movzbl -0x28(%ebp),%eax
  403d84:	83 c7 02             	add    $0x2,%edi
  403d87:	c6 47 ff 30          	movb   $0x30,-0x1(%edi)
  403d8b:	8b 5d e4             	mov    -0x1c(%ebp),%ebx
  403d8e:	88 47 fe             	mov    %al,-0x2(%edi)
  403d91:	e9 2c ff ff ff       	jmp    403cc2 <___pformat_xint+0x162>
  403d96:	8d 46 fe             	lea    -0x2(%esi),%eax
  403d99:	85 c0                	test   %eax,%eax
  403d9b:	7e d7                	jle    403d74 <___pformat_xint+0x214>
  403d9d:	89 c6                	mov    %eax,%esi
  403d9f:	8b 45 08             	mov    0x8(%ebp),%eax
  403da2:	8b 58 0c             	mov    0xc(%eax),%ebx
  403da5:	85 db                	test   %ebx,%ebx
  403da7:	0f 89 f7 fe ff ff    	jns    403ca4 <___pformat_xint+0x144>
  403dad:	8b 45 08             	mov    0x8(%ebp),%eax
  403db0:	8b 40 04             	mov    0x4(%eax),%eax
  403db3:	25 00 06 00 00       	and    $0x600,%eax
  403db8:	3d 00 02 00 00       	cmp    $0x200,%eax
  403dbd:	0f 85 e1 fe ff ff    	jne    403ca4 <___pformat_xint+0x144>
  403dc3:	01 fe                	add    %edi,%esi
  403dc5:	83 c7 01             	add    $0x1,%edi
  403dc8:	39 f7                	cmp    %esi,%edi
  403dca:	c6 47 ff 30          	movb   $0x30,-0x1(%edi)
  403dce:	75 f5                	jne    403dc5 <___pformat_xint+0x265>
  403dd0:	c7 45 e4 fe ff ff ff 	movl   $0xfffffffe,-0x1c(%ebp)
  403dd7:	be ff ff ff ff       	mov    $0xffffffff,%esi
  403ddc:	e9 c9 fe ff ff       	jmp    403caa <___pformat_xint+0x14a>
  403de1:	83 7d d8 6f          	cmpl   $0x6f,-0x28(%ebp)
  403de5:	89 c7                	mov    %eax,%edi
  403de7:	0f 85 6e fe ff ff    	jne    403c5b <___pformat_xint+0xfb>
  403ded:	8b 75 08             	mov    0x8(%ebp),%esi
  403df0:	f6 46 05 08          	testb  $0x8,0x5(%esi)
  403df4:	0f 84 61 fe ff ff    	je     403c5b <___pformat_xint+0xfb>
  403dfa:	83 c7 01             	add    $0x1,%edi
  403dfd:	c6 00 30             	movb   $0x30,(%eax)
  403e00:	e9 56 fe ff ff       	jmp    403c5b <___pformat_xint+0xfb>
  403e05:	8b 45 08             	mov    0x8(%ebp),%eax
  403e08:	8b 70 0c             	mov    0xc(%eax),%esi
  403e0b:	85 f6                	test   %esi,%esi
  403e0d:	0f 84 51 fe ff ff    	je     403c64 <___pformat_xint+0x104>
  403e13:	c6 07 30             	movb   $0x30,(%edi)
  403e16:	83 c7 01             	add    $0x1,%edi
  403e19:	e9 46 fe ff ff       	jmp    403c64 <___pformat_xint+0x104>
  403e1e:	8b 45 08             	mov    0x8(%ebp),%eax
  403e21:	8b 58 0c             	mov    0xc(%eax),%ebx
  403e24:	8b 45 08             	mov    0x8(%ebp),%eax
  403e27:	81 60 04 ff f7 ff ff 	andl   $0xfffff7ff,0x4(%eax)
  403e2e:	8b 45 e0             	mov    -0x20(%ebp),%eax
  403e31:	e9 fe fd ff ff       	jmp    403c34 <___pformat_xint+0xd4>
  403e36:	8d 76 00             	lea    0x0(%esi),%esi
  403e39:	8d bc 27 00 00 00 00 	lea    0x0(%edi,%eiz,1),%edi

00403e40 <___pformat_emit_float>:
  403e40:	55                   	push   %ebp
  403e41:	89 e5                	mov    %esp,%ebp
  403e43:	57                   	push   %edi
  403e44:	56                   	push   %esi
  403e45:	89 d6                	mov    %edx,%esi
  403e47:	53                   	push   %ebx
  403e48:	89 cb                	mov    %ecx,%ebx
  403e4a:	83 ec 3c             	sub    $0x3c,%esp
  403e4d:	8b 7d 08             	mov    0x8(%ebp),%edi
  403e50:	85 c9                	test   %ecx,%ecx
  403e52:	89 45 d4             	mov    %eax,-0x2c(%ebp)
  403e55:	8b 47 08             	mov    0x8(%edi),%eax
  403e58:	0f 8e 7a 02 00 00    	jle    4040d8 <___pformat_emit_float+0x298>
  403e5e:	39 c1                	cmp    %eax,%ecx
  403e60:	0f 8d 3a 01 00 00    	jge    403fa0 <___pformat_emit_float+0x160>
  403e66:	29 c8                	sub    %ecx,%eax
  403e68:	89 47 08             	mov    %eax,0x8(%edi)
  403e6b:	85 c0                	test   %eax,%eax
  403e6d:	0f 88 2d 01 00 00    	js     403fa0 <___pformat_emit_float+0x160>
  403e73:	8b 57 0c             	mov    0xc(%edi),%edx
  403e76:	39 c2                	cmp    %eax,%edx
  403e78:	0f 8d 22 01 00 00    	jge    403fa0 <___pformat_emit_float+0x160>
  403e7e:	29 d0                	sub    %edx,%eax
  403e80:	85 c0                	test   %eax,%eax
  403e82:	89 47 08             	mov    %eax,0x8(%edi)
  403e85:	0f 8e 1c 01 00 00    	jle    403fa7 <___pformat_emit_float+0x167>
  403e8b:	85 d2                	test   %edx,%edx
  403e8d:	0f 8e ad 02 00 00    	jle    404140 <___pformat_emit_float+0x300>
  403e93:	83 e8 01             	sub    $0x1,%eax
  403e96:	85 c0                	test   %eax,%eax
  403e98:	89 47 08             	mov    %eax,0x8(%edi)
  403e9b:	0f 84 06 01 00 00    	je     403fa7 <___pformat_emit_float+0x167>
  403ea1:	8b 55 d4             	mov    -0x2c(%ebp),%edx
  403ea4:	85 d2                	test   %edx,%edx
  403ea6:	0f 85 ba 01 00 00    	jne    404066 <___pformat_emit_float+0x226>
  403eac:	8b 57 04             	mov    0x4(%edi),%edx
  403eaf:	f7 c2 c0 01 00 00    	test   $0x1c0,%edx
  403eb5:	0f 85 ab 01 00 00    	jne    404066 <___pformat_emit_float+0x226>
  403ebb:	80 e6 06             	and    $0x6,%dh
  403ebe:	0f 85 e3 00 00 00    	jne    403fa7 <___pformat_emit_float+0x167>
  403ec4:	eb 0c                	jmp    403ed2 <___pformat_emit_float+0x92>
  403ec6:	89 fa                	mov    %edi,%edx
  403ec8:	b8 20 00 00 00       	mov    $0x20,%eax
  403ecd:	e8 ae f7 ff ff       	call   403680 <___pformat_putc>
  403ed2:	8b 47 08             	mov    0x8(%edi),%eax
  403ed5:	8d 50 ff             	lea    -0x1(%eax),%edx
  403ed8:	85 c0                	test   %eax,%eax
  403eda:	89 57 08             	mov    %edx,0x8(%edi)
  403edd:	7f e7                	jg     403ec6 <___pformat_emit_float+0x86>
  403edf:	8b 45 d4             	mov    -0x2c(%ebp),%eax
  403ee2:	85 c0                	test   %eax,%eax
  403ee4:	0f 84 c8 00 00 00    	je     403fb2 <___pformat_emit_float+0x172>
  403eea:	89 fa                	mov    %edi,%edx
  403eec:	b8 2d 00 00 00       	mov    $0x2d,%eax
  403ef1:	e8 8a f7 ff ff       	call   403680 <___pformat_putc>
  403ef6:	8b 57 08             	mov    0x8(%edi),%edx
  403ef9:	85 d2                	test   %edx,%edx
  403efb:	7e 13                	jle    403f10 <___pformat_emit_float+0xd0>
  403efd:	8b 47 04             	mov    0x4(%edi),%eax
  403f00:	25 00 06 00 00       	and    $0x600,%eax
  403f05:	3d 00 02 00 00       	cmp    $0x200,%eax
  403f0a:	0f 84 f1 01 00 00    	je     404101 <___pformat_emit_float+0x2c1>
  403f10:	85 db                	test   %ebx,%ebx
  403f12:	0f 8e 10 02 00 00    	jle    404128 <___pformat_emit_float+0x2e8>
  403f18:	0f b6 16             	movzbl (%esi),%edx
  403f1b:	b8 30 00 00 00       	mov    $0x30,%eax
  403f20:	84 d2                	test   %dl,%dl
  403f22:	74 06                	je     403f2a <___pformat_emit_float+0xea>
  403f24:	83 c6 01             	add    $0x1,%esi
  403f27:	0f be c2             	movsbl %dl,%eax
  403f2a:	89 fa                	mov    %edi,%edx
  403f2c:	e8 4f f7 ff ff       	call   403680 <___pformat_putc>
  403f31:	83 eb 01             	sub    $0x1,%ebx
  403f34:	75 e2                	jne    403f18 <___pformat_emit_float+0xd8>
  403f36:	8b 47 0c             	mov    0xc(%edi),%eax
  403f39:	85 c0                	test   %eax,%eax
  403f3b:	0f 8e 3f 01 00 00    	jle    404080 <___pformat_emit_float+0x240>
  403f41:	83 7f 10 fd          	cmpl   $0xfffffffd,0x10(%edi)
  403f45:	0f 84 49 01 00 00    	je     404094 <___pformat_emit_float+0x254>
  403f4b:	0f b7 57 14          	movzwl 0x14(%edi),%edx
  403f4f:	66 85 d2             	test   %dx,%dx
  403f52:	0f 85 7f 00 00 00    	jne    403fd7 <___pformat_emit_float+0x197>
  403f58:	b8 2e 00 00 00       	mov    $0x2e,%eax
  403f5d:	89 fa                	mov    %edi,%edx
  403f5f:	e8 1c f7 ff ff       	call   403680 <___pformat_putc>
  403f64:	8b 47 0c             	mov    0xc(%edi),%eax
  403f67:	85 db                	test   %ebx,%ebx
  403f69:	74 21                	je     403f8c <___pformat_emit_float+0x14c>
  403f6b:	e9 d8 00 00 00       	jmp    404048 <___pformat_emit_float+0x208>
  403f70:	0f b6 16             	movzbl (%esi),%edx
  403f73:	b8 30 00 00 00       	mov    $0x30,%eax
  403f78:	84 d2                	test   %dl,%dl
  403f7a:	74 06                	je     403f82 <___pformat_emit_float+0x142>
  403f7c:	83 c6 01             	add    $0x1,%esi
  403f7f:	0f be c2             	movsbl %dl,%eax
  403f82:	89 fa                	mov    %edi,%edx
  403f84:	e8 f7 f6 ff ff       	call   403680 <___pformat_putc>
  403f89:	8b 47 0c             	mov    0xc(%edi),%eax
  403f8c:	8d 50 ff             	lea    -0x1(%eax),%edx
  403f8f:	85 c0                	test   %eax,%eax
  403f91:	89 57 0c             	mov    %edx,0xc(%edi)
  403f94:	7f da                	jg     403f70 <___pformat_emit_float+0x130>
  403f96:	8d 65 f4             	lea    -0xc(%ebp),%esp
  403f99:	5b                   	pop    %ebx
  403f9a:	5e                   	pop    %esi
  403f9b:	5f                   	pop    %edi
  403f9c:	5d                   	pop    %ebp
  403f9d:	c3                   	ret    
  403f9e:	66 90                	xchg   %ax,%ax
  403fa0:	c7 47 08 ff ff ff ff 	movl   $0xffffffff,0x8(%edi)
  403fa7:	8b 45 d4             	mov    -0x2c(%ebp),%eax
  403faa:	85 c0                	test   %eax,%eax
  403fac:	0f 85 38 ff ff ff    	jne    403eea <___pformat_emit_float+0xaa>
  403fb2:	8b 47 04             	mov    0x4(%edi),%eax
  403fb5:	f6 c4 01             	test   $0x1,%ah
  403fb8:	0f 85 32 01 00 00    	jne    4040f0 <___pformat_emit_float+0x2b0>
  403fbe:	a8 40                	test   $0x40,%al
  403fc0:	0f 84 30 ff ff ff    	je     403ef6 <___pformat_emit_float+0xb6>
  403fc6:	89 fa                	mov    %edi,%edx
  403fc8:	b8 20 00 00 00       	mov    $0x20,%eax
  403fcd:	e8 ae f6 ff ff       	call   403680 <___pformat_putc>
  403fd2:	e9 1f ff ff ff       	jmp    403ef6 <___pformat_emit_float+0xb6>
  403fd7:	8b 47 10             	mov    0x10(%edi),%eax
  403fda:	89 65 d4             	mov    %esp,-0x2c(%ebp)
  403fdd:	83 c0 0f             	add    $0xf,%eax
  403fe0:	83 e0 f0             	and    $0xfffffff0,%eax
  403fe3:	e8 28 df ff ff       	call   401f10 <___chkstk_ms>
  403fe8:	29 c4                	sub    %eax,%esp
  403fea:	8d 4c 24 10          	lea    0x10(%esp),%ecx
  403fee:	8d 45 e4             	lea    -0x1c(%ebp),%eax
  403ff1:	c7 45 e4 00 00 00 00 	movl   $0x0,-0x1c(%ebp)
  403ff8:	89 44 24 08          	mov    %eax,0x8(%esp)
  403ffc:	89 54 24 04          	mov    %edx,0x4(%esp)
  404000:	89 0c 24             	mov    %ecx,(%esp)
  404003:	89 4d d0             	mov    %ecx,-0x30(%ebp)
  404006:	e8 b5 29 00 00       	call   4069c0 <_wcrtomb>
  40400b:	85 c0                	test   %eax,%eax
  40400d:	0f 8e 42 01 00 00    	jle    404155 <___pformat_emit_float+0x315>
  404013:	8b 4d d0             	mov    -0x30(%ebp),%ecx
  404016:	89 5d cc             	mov    %ebx,-0x34(%ebp)
  404019:	89 75 d0             	mov    %esi,-0x30(%ebp)
  40401c:	01 c8                	add    %ecx,%eax
  40401e:	89 cb                	mov    %ecx,%ebx
  404020:	89 c6                	mov    %eax,%esi
  404022:	83 c3 01             	add    $0x1,%ebx
  404025:	0f be 43 ff          	movsbl -0x1(%ebx),%eax
  404029:	89 fa                	mov    %edi,%edx
  40402b:	e8 50 f6 ff ff       	call   403680 <___pformat_putc>
  404030:	39 f3                	cmp    %esi,%ebx
  404032:	75 ee                	jne    404022 <___pformat_emit_float+0x1e2>
  404034:	8b 75 d0             	mov    -0x30(%ebp),%esi
  404037:	8b 5d cc             	mov    -0x34(%ebp),%ebx
  40403a:	85 db                	test   %ebx,%ebx
  40403c:	8b 65 d4             	mov    -0x2c(%ebp),%esp
  40403f:	8b 47 0c             	mov    0xc(%edi),%eax
  404042:	0f 84 44 ff ff ff    	je     403f8c <___pformat_emit_float+0x14c>
  404048:	01 d8                	add    %ebx,%eax
  40404a:	89 47 0c             	mov    %eax,0xc(%edi)
  40404d:	8d 76 00             	lea    0x0(%esi),%esi
  404050:	89 fa                	mov    %edi,%edx
  404052:	b8 30 00 00 00       	mov    $0x30,%eax
  404057:	e8 24 f6 ff ff       	call   403680 <___pformat_putc>
  40405c:	83 c3 01             	add    $0x1,%ebx
  40405f:	78 ef                	js     404050 <___pformat_emit_float+0x210>
  404061:	e9 23 ff ff ff       	jmp    403f89 <___pformat_emit_float+0x149>
  404066:	83 e8 01             	sub    $0x1,%eax
  404069:	85 c0                	test   %eax,%eax
  40406b:	89 47 08             	mov    %eax,0x8(%edi)
  40406e:	0f 84 33 ff ff ff    	je     403fa7 <___pformat_emit_float+0x167>
  404074:	8b 57 04             	mov    0x4(%edi),%edx
  404077:	e9 3f fe ff ff       	jmp    403ebb <___pformat_emit_float+0x7b>
  40407c:	8d 74 26 00          	lea    0x0(%esi,%eiz,1),%esi
  404080:	f6 47 05 08          	testb  $0x8,0x5(%edi)
  404084:	0f 84 dd fe ff ff    	je     403f67 <___pformat_emit_float+0x127>
  40408a:	83 7f 10 fd          	cmpl   $0xfffffffd,0x10(%edi)
  40408e:	0f 85 b7 fe ff ff    	jne    403f4b <___pformat_emit_float+0x10b>
  404094:	c7 45 e4 00 00 00 00 	movl   $0x0,-0x1c(%ebp)
  40409b:	e8 30 3f 00 00       	call   407fd0 <_localeconv>
  4040a0:	8d 55 e4             	lea    -0x1c(%ebp),%edx
  4040a3:	89 54 24 0c          	mov    %edx,0xc(%esp)
  4040a7:	c7 44 24 08 10 00 00 	movl   $0x10,0x8(%esp)
  4040ae:	00 
  4040af:	8b 00                	mov    (%eax),%eax
  4040b1:	89 44 24 04          	mov    %eax,0x4(%esp)
  4040b5:	8d 45 e2             	lea    -0x1e(%ebp),%eax
  4040b8:	89 04 24             	mov    %eax,(%esp)
  4040bb:	e8 50 2c 00 00       	call   406d10 <_mbrtowc>
  4040c0:	85 c0                	test   %eax,%eax
  4040c2:	0f 8e 9e 00 00 00    	jle    404166 <___pformat_emit_float+0x326>
  4040c8:	0f b7 55 e2          	movzwl -0x1e(%ebp),%edx
  4040cc:	66 89 57 14          	mov    %dx,0x14(%edi)
  4040d0:	89 47 10             	mov    %eax,0x10(%edi)
  4040d3:	e9 77 fe ff ff       	jmp    403f4f <___pformat_emit_float+0x10f>
  4040d8:	85 c0                	test   %eax,%eax
  4040da:	0f 8e 8b fd ff ff    	jle    403e6b <___pformat_emit_float+0x2b>
  4040e0:	83 e8 01             	sub    $0x1,%eax
  4040e3:	89 47 08             	mov    %eax,0x8(%edi)
  4040e6:	e9 88 fd ff ff       	jmp    403e73 <___pformat_emit_float+0x33>
  4040eb:	90                   	nop
  4040ec:	8d 74 26 00          	lea    0x0(%esi,%eiz,1),%esi
  4040f0:	89 fa                	mov    %edi,%edx
  4040f2:	b8 2b 00 00 00       	mov    $0x2b,%eax
  4040f7:	e8 84 f5 ff ff       	call   403680 <___pformat_putc>
  4040fc:	e9 f5 fd ff ff       	jmp    403ef6 <___pformat_emit_float+0xb6>
  404101:	83 ea 01             	sub    $0x1,%edx
  404104:	89 57 08             	mov    %edx,0x8(%edi)
  404107:	89 fa                	mov    %edi,%edx
  404109:	b8 30 00 00 00       	mov    $0x30,%eax
  40410e:	e8 6d f5 ff ff       	call   403680 <___pformat_putc>
  404113:	8b 47 08             	mov    0x8(%edi),%eax
  404116:	8d 50 ff             	lea    -0x1(%eax),%edx
  404119:	85 c0                	test   %eax,%eax
  40411b:	89 57 08             	mov    %edx,0x8(%edi)
  40411e:	7f e7                	jg     404107 <___pformat_emit_float+0x2c7>
  404120:	85 db                	test   %ebx,%ebx
  404122:	0f 8f f0 fd ff ff    	jg     403f18 <___pformat_emit_float+0xd8>
  404128:	89 fa                	mov    %edi,%edx
  40412a:	b8 30 00 00 00       	mov    $0x30,%eax
  40412f:	e8 4c f5 ff ff       	call   403680 <___pformat_putc>
  404134:	e9 fd fd ff ff       	jmp    403f36 <___pformat_emit_float+0xf6>
  404139:	8d b4 26 00 00 00 00 	lea    0x0(%esi,%eiz,1),%esi
  404140:	f6 47 05 08          	testb  $0x8,0x5(%edi)
  404144:	0f 84 57 fd ff ff    	je     403ea1 <___pformat_emit_float+0x61>
  40414a:	8d b6 00 00 00 00    	lea    0x0(%esi),%esi
  404150:	e9 3e fd ff ff       	jmp    403e93 <___pformat_emit_float+0x53>
  404155:	89 fa                	mov    %edi,%edx
  404157:	b8 2e 00 00 00       	mov    $0x2e,%eax
  40415c:	e8 1f f5 ff ff       	call   403680 <___pformat_putc>
  404161:	e9 d4 fe ff ff       	jmp    40403a <___pformat_emit_float+0x1fa>
  404166:	0f b7 57 14          	movzwl 0x14(%edi),%edx
  40416a:	e9 61 ff ff ff       	jmp    4040d0 <___pformat_emit_float+0x290>
  40416f:	90                   	nop

00404170 <___pformat_emit_efloat>:
  404170:	55                   	push   %ebp
  404171:	83 e9 01             	sub    $0x1,%ecx
  404174:	57                   	push   %edi
  404175:	89 d5                	mov    %edx,%ebp
  404177:	56                   	push   %esi
  404178:	be 01 00 00 00       	mov    $0x1,%esi
  40417d:	53                   	push   %ebx
  40417e:	bb 67 66 66 66       	mov    $0x66666667,%ebx
  404183:	83 ec 1c             	sub    $0x1c,%esp
  404186:	89 44 24 04          	mov    %eax,0x4(%esp)
  40418a:	89 c8                	mov    %ecx,%eax
  40418c:	8b 7c 24 30          	mov    0x30(%esp),%edi
  404190:	c1 f8 1f             	sar    $0x1f,%eax
  404193:	89 44 24 0c          	mov    %eax,0xc(%esp)
  404197:	89 c8                	mov    %ecx,%eax
  404199:	f7 eb                	imul   %ebx
  40419b:	89 4c 24 08          	mov    %ecx,0x8(%esp)
  40419f:	c1 f9 1f             	sar    $0x1f,%ecx
  4041a2:	c1 fa 02             	sar    $0x2,%edx
  4041a5:	89 d3                	mov    %edx,%ebx
  4041a7:	29 cb                	sub    %ecx,%ebx
  4041a9:	74 18                	je     4041c3 <___pformat_emit_efloat+0x53>
  4041ab:	b9 67 66 66 66       	mov    $0x66666667,%ecx
  4041b0:	89 d8                	mov    %ebx,%eax
  4041b2:	83 c6 01             	add    $0x1,%esi
  4041b5:	f7 e9                	imul   %ecx
  4041b7:	c1 fb 1f             	sar    $0x1f,%ebx
  4041ba:	c1 fa 02             	sar    $0x2,%edx
  4041bd:	29 da                	sub    %ebx,%edx
  4041bf:	89 d3                	mov    %edx,%ebx
  4041c1:	75 ed                	jne    4041b0 <___pformat_emit_efloat+0x40>
  4041c3:	8b 47 20             	mov    0x20(%edi),%eax
  4041c6:	39 c6                	cmp    %eax,%esi
  4041c8:	7d 02                	jge    4041cc <___pformat_emit_efloat+0x5c>
  4041ca:	89 c6                	mov    %eax,%esi
  4041cc:	8b 57 08             	mov    0x8(%edi),%edx
  4041cf:	8d 46 02             	lea    0x2(%esi),%eax
  4041d2:	39 c2                	cmp    %eax,%edx
  4041d4:	7f 5a                	jg     404230 <___pformat_emit_efloat+0xc0>
  4041d6:	c7 47 08 ff ff ff ff 	movl   $0xffffffff,0x8(%edi)
  4041dd:	8b 44 24 04          	mov    0x4(%esp),%eax
  4041e1:	b9 01 00 00 00       	mov    $0x1,%ecx
  4041e6:	89 ea                	mov    %ebp,%edx
  4041e8:	89 3c 24             	mov    %edi,(%esp)
  4041eb:	83 c6 01             	add    $0x1,%esi
  4041ee:	e8 4d fc ff ff       	call   403e40 <___pformat_emit_float>
  4041f3:	8b 47 20             	mov    0x20(%edi),%eax
  4041f6:	89 47 0c             	mov    %eax,0xc(%edi)
  4041f9:	8b 47 04             	mov    0x4(%edi),%eax
  4041fc:	89 c2                	mov    %eax,%edx
  4041fe:	83 e0 20             	and    $0x20,%eax
  404201:	81 ca c0 01 00 00    	or     $0x1c0,%edx
  404207:	83 c8 45             	or     $0x45,%eax
  40420a:	89 57 04             	mov    %edx,0x4(%edi)
  40420d:	89 fa                	mov    %edi,%edx
  40420f:	e8 6c f4 ff ff       	call   403680 <___pformat_putc>
  404214:	8b 44 24 08          	mov    0x8(%esp),%eax
  404218:	89 f9                	mov    %edi,%ecx
  40421a:	01 77 08             	add    %esi,0x8(%edi)
  40421d:	8b 54 24 0c          	mov    0xc(%esp),%edx
  404221:	e8 0a f7 ff ff       	call   403930 <___pformat_int>
  404226:	83 c4 1c             	add    $0x1c,%esp
  404229:	5b                   	pop    %ebx
  40422a:	5e                   	pop    %esi
  40422b:	5f                   	pop    %edi
  40422c:	5d                   	pop    %ebp
  40422d:	c3                   	ret    
  40422e:	66 90                	xchg   %ax,%ax
  404230:	29 c2                	sub    %eax,%edx
  404232:	89 57 08             	mov    %edx,0x8(%edi)
  404235:	eb a6                	jmp    4041dd <___pformat_emit_efloat+0x6d>
  404237:	89 f6                	mov    %esi,%esi
  404239:	8d bc 27 00 00 00 00 	lea    0x0(%edi,%eiz,1),%edi

00404240 <___pformat_efloat>:
  404240:	56                   	push   %esi
  404241:	53                   	push   %ebx
  404242:	89 c3                	mov    %eax,%ebx
  404244:	83 ec 44             	sub    $0x44,%esp
  404247:	8b 40 0c             	mov    0xc(%eax),%eax
  40424a:	85 c0                	test   %eax,%eax
  40424c:	78 72                	js     4042c0 <___pformat_efloat+0x80>
  40424e:	83 c0 01             	add    $0x1,%eax
  404251:	db 6c 24 50          	fldt   0x50(%esp)
  404255:	89 44 24 10          	mov    %eax,0x10(%esp)
  404259:	8d 54 24 28          	lea    0x28(%esp),%edx
  40425d:	db 7c 24 30          	fstpt  0x30(%esp)
  404261:	8b 44 24 30          	mov    0x30(%esp),%eax
  404265:	89 54 24 18          	mov    %edx,0x18(%esp)
  404269:	8d 54 24 2c          	lea    0x2c(%esp),%edx
  40426d:	89 54 24 14          	mov    %edx,0x14(%esp)
  404271:	89 04 24             	mov    %eax,(%esp)
  404274:	8b 44 24 34          	mov    0x34(%esp),%eax
  404278:	89 44 24 04          	mov    %eax,0x4(%esp)
  40427c:	8b 44 24 38          	mov    0x38(%esp),%eax
  404280:	89 44 24 08          	mov    %eax,0x8(%esp)
  404284:	8b 44 24 3c          	mov    0x3c(%esp),%eax
  404288:	89 44 24 0c          	mov    %eax,0xc(%esp)
  40428c:	b8 02 00 00 00       	mov    $0x2,%eax
  404291:	e8 ea f2 ff ff       	call   403580 <___pformat_cvt>
  404296:	8b 4c 24 2c          	mov    0x2c(%esp),%ecx
  40429a:	81 f9 00 80 ff ff    	cmp    $0xffff8000,%ecx
  4042a0:	89 c6                	mov    %eax,%esi
  4042a2:	74 2c                	je     4042d0 <___pformat_efloat+0x90>
  4042a4:	89 c2                	mov    %eax,%edx
  4042a6:	8b 44 24 28          	mov    0x28(%esp),%eax
  4042aa:	89 1c 24             	mov    %ebx,(%esp)
  4042ad:	e8 be fe ff ff       	call   404170 <___pformat_emit_efloat>
  4042b2:	89 34 24             	mov    %esi,(%esp)
  4042b5:	e8 86 2d 00 00       	call   407040 <___freedtoa>
  4042ba:	83 c4 44             	add    $0x44,%esp
  4042bd:	5b                   	pop    %ebx
  4042be:	5e                   	pop    %esi
  4042bf:	c3                   	ret    
  4042c0:	c7 43 0c 06 00 00 00 	movl   $0x6,0xc(%ebx)
  4042c7:	b8 07 00 00 00       	mov    $0x7,%eax
  4042cc:	eb 83                	jmp    404251 <___pformat_efloat+0x11>
  4042ce:	66 90                	xchg   %ax,%ax
  4042d0:	89 c2                	mov    %eax,%edx
  4042d2:	8b 44 24 28          	mov    0x28(%esp),%eax
  4042d6:	89 d9                	mov    %ebx,%ecx
  4042d8:	e8 c3 f5 ff ff       	call   4038a0 <___pformat_emit_inf_or_nan>
  4042dd:	89 34 24             	mov    %esi,(%esp)
  4042e0:	e8 5b 2d 00 00       	call   407040 <___freedtoa>
  4042e5:	83 c4 44             	add    $0x44,%esp
  4042e8:	5b                   	pop    %ebx
  4042e9:	5e                   	pop    %esi
  4042ea:	c3                   	ret    
  4042eb:	90                   	nop
  4042ec:	8d 74 26 00          	lea    0x0(%esi,%eiz,1),%esi

004042f0 <___pformat_float>:
  4042f0:	57                   	push   %edi
  4042f1:	56                   	push   %esi
  4042f2:	53                   	push   %ebx
  4042f3:	89 c3                	mov    %eax,%ebx
  4042f5:	83 ec 40             	sub    $0x40,%esp
  4042f8:	8b 40 0c             	mov    0xc(%eax),%eax
  4042fb:	85 c0                	test   %eax,%eax
  4042fd:	0f 88 9d 00 00 00    	js     4043a0 <___pformat_float+0xb0>
  404303:	db 6c 24 50          	fldt   0x50(%esp)
  404307:	89 44 24 10          	mov    %eax,0x10(%esp)
  40430b:	8d 54 24 28          	lea    0x28(%esp),%edx
  40430f:	db 7c 24 30          	fstpt  0x30(%esp)
  404313:	8b 44 24 30          	mov    0x30(%esp),%eax
  404317:	89 54 24 18          	mov    %edx,0x18(%esp)
  40431b:	8d 54 24 2c          	lea    0x2c(%esp),%edx
  40431f:	89 54 24 14          	mov    %edx,0x14(%esp)
  404323:	89 04 24             	mov    %eax,(%esp)
  404326:	8b 44 24 34          	mov    0x34(%esp),%eax
  40432a:	89 44 24 04          	mov    %eax,0x4(%esp)
  40432e:	8b 44 24 38          	mov    0x38(%esp),%eax
  404332:	89 44 24 08          	mov    %eax,0x8(%esp)
  404336:	8b 44 24 3c          	mov    0x3c(%esp),%eax
  40433a:	89 44 24 0c          	mov    %eax,0xc(%esp)
  40433e:	b8 03 00 00 00       	mov    $0x3,%eax
  404343:	e8 38 f2 ff ff       	call   403580 <___pformat_cvt>
  404348:	8b 4c 24 2c          	mov    0x2c(%esp),%ecx
  40434c:	81 f9 00 80 ff ff    	cmp    $0xffff8000,%ecx
  404352:	89 c7                	mov    %eax,%edi
  404354:	74 5b                	je     4043b1 <___pformat_float+0xc1>
  404356:	89 c2                	mov    %eax,%edx
  404358:	8b 44 24 28          	mov    0x28(%esp),%eax
  40435c:	89 1c 24             	mov    %ebx,(%esp)
  40435f:	e8 dc fa ff ff       	call   403e40 <___pformat_emit_float>
  404364:	8b 43 08             	mov    0x8(%ebx),%eax
  404367:	8d 50 ff             	lea    -0x1(%eax),%edx
  40436a:	85 c0                	test   %eax,%eax
  40436c:	89 53 08             	mov    %edx,0x8(%ebx)
  40436f:	7e 19                	jle    40438a <___pformat_float+0x9a>
  404371:	89 da                	mov    %ebx,%edx
  404373:	b8 20 00 00 00       	mov    $0x20,%eax
  404378:	e8 03 f3 ff ff       	call   403680 <___pformat_putc>
  40437d:	8b 4b 08             	mov    0x8(%ebx),%ecx
  404380:	8d 71 ff             	lea    -0x1(%ecx),%esi
  404383:	85 c9                	test   %ecx,%ecx
  404385:	89 73 08             	mov    %esi,0x8(%ebx)
  404388:	7f e7                	jg     404371 <___pformat_float+0x81>
  40438a:	89 3c 24             	mov    %edi,(%esp)
  40438d:	e8 ae 2c 00 00       	call   407040 <___freedtoa>
  404392:	83 c4 40             	add    $0x40,%esp
  404395:	5b                   	pop    %ebx
  404396:	5e                   	pop    %esi
  404397:	5f                   	pop    %edi
  404398:	c3                   	ret    
  404399:	8d b4 26 00 00 00 00 	lea    0x0(%esi,%eiz,1),%esi
  4043a0:	c7 43 0c 06 00 00 00 	movl   $0x6,0xc(%ebx)
  4043a7:	b8 06 00 00 00       	mov    $0x6,%eax
  4043ac:	e9 52 ff ff ff       	jmp    404303 <___pformat_float+0x13>
  4043b1:	89 c2                	mov    %eax,%edx
  4043b3:	8b 44 24 28          	mov    0x28(%esp),%eax
  4043b7:	89 d9                	mov    %ebx,%ecx
  4043b9:	e8 e2 f4 ff ff       	call   4038a0 <___pformat_emit_inf_or_nan>
  4043be:	89 3c 24             	mov    %edi,(%esp)
  4043c1:	e8 7a 2c 00 00       	call   407040 <___freedtoa>
  4043c6:	83 c4 40             	add    $0x40,%esp
  4043c9:	5b                   	pop    %ebx
  4043ca:	5e                   	pop    %esi
  4043cb:	5f                   	pop    %edi
  4043cc:	c3                   	ret    
  4043cd:	8d 76 00             	lea    0x0(%esi),%esi

004043d0 <___pformat_gfloat>:
  4043d0:	57                   	push   %edi
  4043d1:	56                   	push   %esi
  4043d2:	53                   	push   %ebx
  4043d3:	89 c3                	mov    %eax,%ebx
  4043d5:	83 ec 40             	sub    $0x40,%esp
  4043d8:	8b 40 0c             	mov    0xc(%eax),%eax
  4043db:	85 c0                	test   %eax,%eax
  4043dd:	0f 88 1d 01 00 00    	js     404500 <___pformat_gfloat+0x130>
  4043e3:	0f 84 fa 00 00 00    	je     4044e3 <___pformat_gfloat+0x113>
  4043e9:	db 6c 24 50          	fldt   0x50(%esp)
  4043ed:	89 44 24 10          	mov    %eax,0x10(%esp)
  4043f1:	8d 54 24 28          	lea    0x28(%esp),%edx
  4043f5:	db 7c 24 30          	fstpt  0x30(%esp)
  4043f9:	8b 44 24 30          	mov    0x30(%esp),%eax
  4043fd:	89 54 24 18          	mov    %edx,0x18(%esp)
  404401:	8d 54 24 2c          	lea    0x2c(%esp),%edx
  404405:	89 54 24 14          	mov    %edx,0x14(%esp)
  404409:	89 04 24             	mov    %eax,(%esp)
  40440c:	8b 44 24 34          	mov    0x34(%esp),%eax
  404410:	89 44 24 04          	mov    %eax,0x4(%esp)
  404414:	8b 44 24 38          	mov    0x38(%esp),%eax
  404418:	89 44 24 08          	mov    %eax,0x8(%esp)
  40441c:	8b 44 24 3c          	mov    0x3c(%esp),%eax
  404420:	89 44 24 0c          	mov    %eax,0xc(%esp)
  404424:	b8 02 00 00 00       	mov    $0x2,%eax
  404429:	e8 52 f1 ff ff       	call   403580 <___pformat_cvt>
  40442e:	8b 74 24 2c          	mov    0x2c(%esp),%esi
  404432:	81 fe 00 80 ff ff    	cmp    $0xffff8000,%esi
  404438:	89 c7                	mov    %eax,%edi
  40443a:	0f 84 e0 00 00 00    	je     404520 <___pformat_gfloat+0x150>
  404440:	83 fe fd             	cmp    $0xfffffffd,%esi
  404443:	7c 6b                	jl     4044b0 <___pformat_gfloat+0xe0>
  404445:	8b 43 0c             	mov    0xc(%ebx),%eax
  404448:	39 c6                	cmp    %eax,%esi
  40444a:	7f 64                	jg     4044b0 <___pformat_gfloat+0xe0>
  40444c:	f6 43 05 08          	testb  $0x8,0x5(%ebx)
  404450:	0f 85 bb 00 00 00    	jne    404511 <___pformat_gfloat+0x141>
  404456:	89 3c 24             	mov    %edi,(%esp)
  404459:	e8 e2 3a 00 00       	call   407f40 <_strlen>
  40445e:	29 f0                	sub    %esi,%eax
  404460:	85 c0                	test   %eax,%eax
  404462:	89 43 0c             	mov    %eax,0xc(%ebx)
  404465:	0f 88 c5 00 00 00    	js     404530 <___pformat_gfloat+0x160>
  40446b:	8b 44 24 28          	mov    0x28(%esp),%eax
  40446f:	89 fa                	mov    %edi,%edx
  404471:	89 f1                	mov    %esi,%ecx
  404473:	89 1c 24             	mov    %ebx,(%esp)
  404476:	e8 c5 f9 ff ff       	call   403e40 <___pformat_emit_float>
  40447b:	8b 43 08             	mov    0x8(%ebx),%eax
  40447e:	8d 50 ff             	lea    -0x1(%eax),%edx
  404481:	85 c0                	test   %eax,%eax
  404483:	89 53 08             	mov    %edx,0x8(%ebx)
  404486:	7e 4c                	jle    4044d4 <___pformat_gfloat+0x104>
  404488:	89 da                	mov    %ebx,%edx
  40448a:	b8 20 00 00 00       	mov    $0x20,%eax
  40448f:	e8 ec f1 ff ff       	call   403680 <___pformat_putc>
  404494:	8b 4b 08             	mov    0x8(%ebx),%ecx
  404497:	8d 71 ff             	lea    -0x1(%ecx),%esi
  40449a:	85 c9                	test   %ecx,%ecx
  40449c:	89 73 08             	mov    %esi,0x8(%ebx)
  40449f:	7f e7                	jg     404488 <___pformat_gfloat+0xb8>
  4044a1:	89 3c 24             	mov    %edi,(%esp)
  4044a4:	e8 97 2b 00 00       	call   407040 <___freedtoa>
  4044a9:	83 c4 40             	add    $0x40,%esp
  4044ac:	5b                   	pop    %ebx
  4044ad:	5e                   	pop    %esi
  4044ae:	5f                   	pop    %edi
  4044af:	c3                   	ret    
  4044b0:	f6 43 05 08          	testb  $0x8,0x5(%ebx)
  4044b4:	75 3e                	jne    4044f4 <___pformat_gfloat+0x124>
  4044b6:	89 3c 24             	mov    %edi,(%esp)
  4044b9:	e8 82 3a 00 00       	call   407f40 <_strlen>
  4044be:	83 e8 01             	sub    $0x1,%eax
  4044c1:	89 43 0c             	mov    %eax,0xc(%ebx)
  4044c4:	8b 44 24 28          	mov    0x28(%esp),%eax
  4044c8:	89 f1                	mov    %esi,%ecx
  4044ca:	89 fa                	mov    %edi,%edx
  4044cc:	89 1c 24             	mov    %ebx,(%esp)
  4044cf:	e8 9c fc ff ff       	call   404170 <___pformat_emit_efloat>
  4044d4:	89 3c 24             	mov    %edi,(%esp)
  4044d7:	e8 64 2b 00 00       	call   407040 <___freedtoa>
  4044dc:	83 c4 40             	add    $0x40,%esp
  4044df:	5b                   	pop    %ebx
  4044e0:	5e                   	pop    %esi
  4044e1:	5f                   	pop    %edi
  4044e2:	c3                   	ret    
  4044e3:	c7 43 0c 01 00 00 00 	movl   $0x1,0xc(%ebx)
  4044ea:	b8 01 00 00 00       	mov    $0x1,%eax
  4044ef:	e9 f5 fe ff ff       	jmp    4043e9 <___pformat_gfloat+0x19>
  4044f4:	83 6b 0c 01          	subl   $0x1,0xc(%ebx)
  4044f8:	eb ca                	jmp    4044c4 <___pformat_gfloat+0xf4>
  4044fa:	8d b6 00 00 00 00    	lea    0x0(%esi),%esi
  404500:	c7 43 0c 06 00 00 00 	movl   $0x6,0xc(%ebx)
  404507:	b8 06 00 00 00       	mov    $0x6,%eax
  40450c:	e9 d8 fe ff ff       	jmp    4043e9 <___pformat_gfloat+0x19>
  404511:	29 f0                	sub    %esi,%eax
  404513:	89 43 0c             	mov    %eax,0xc(%ebx)
  404516:	e9 50 ff ff ff       	jmp    40446b <___pformat_gfloat+0x9b>
  40451b:	90                   	nop
  40451c:	8d 74 26 00          	lea    0x0(%esi,%eiz,1),%esi
  404520:	89 c2                	mov    %eax,%edx
  404522:	8b 44 24 28          	mov    0x28(%esp),%eax
  404526:	89 d9                	mov    %ebx,%ecx
  404528:	e8 73 f3 ff ff       	call   4038a0 <___pformat_emit_inf_or_nan>
  40452d:	eb a5                	jmp    4044d4 <___pformat_gfloat+0x104>
  40452f:	90                   	nop
  404530:	8b 53 08             	mov    0x8(%ebx),%edx
  404533:	85 d2                	test   %edx,%edx
  404535:	0f 8e 30 ff ff ff    	jle    40446b <___pformat_gfloat+0x9b>
  40453b:	01 d0                	add    %edx,%eax
  40453d:	89 43 08             	mov    %eax,0x8(%ebx)
  404540:	e9 26 ff ff ff       	jmp    40446b <___pformat_gfloat+0x9b>
  404545:	8d 74 26 00          	lea    0x0(%esi,%eiz,1),%esi
  404549:	8d bc 27 00 00 00 00 	lea    0x0(%edi,%eiz,1),%edi

00404550 <___pformat_xldouble>:
  404550:	55                   	push   %ebp
  404551:	89 e5                	mov    %esp,%ebp
  404553:	57                   	push   %edi
  404554:	89 c7                	mov    %eax,%edi
  404556:	56                   	push   %esi
  404557:	53                   	push   %ebx
  404558:	83 ec 6c             	sub    $0x6c,%esp
  40455b:	db 6d 08             	fldt   0x8(%ebp)
  40455e:	d9 c0                	fld    %st(0)
  404560:	db 7d c0             	fstpt  -0x40(%ebp)
  404563:	d9 e5                	fxam   
  404565:	9b df e0             	fstsw  %ax
  404568:	66 25 00 45          	and    $0x4500,%ax
  40456c:	66 3d 00 01          	cmp    $0x100,%ax
  404570:	0f 84 1f 05 00 00    	je     404a95 <___pformat_xldouble+0x545>
  404576:	0f b7 55 c8          	movzwl -0x38(%ebp),%edx
  40457a:	89 d3                	mov    %edx,%ebx
  40457c:	81 e3 00 80 00 00    	and    $0x8000,%ebx
  404582:	0f 85 48 01 00 00    	jne    4046d0 <___pformat_xldouble+0x180>
  404588:	d9 e5                	fxam   
  40458a:	9b df e0             	fstsw  %ax
  40458d:	dd d8                	fstp   %st(0)
  40458f:	66 25 00 45          	and    $0x4500,%ax
  404593:	66 3d 00 05          	cmp    $0x500,%ax
  404597:	0f 84 16 05 00 00    	je     404ab3 <___pformat_xldouble+0x563>
  40459d:	66 81 e2 ff 7f       	and    $0x7fff,%dx
  4045a2:	0f 84 b8 01 00 00    	je     404760 <___pformat_xldouble+0x210>
  4045a8:	8d b2 01 c0 ff ff    	lea    -0x3fff(%edx),%esi
  4045ae:	8b 45 c0             	mov    -0x40(%ebp),%eax
  4045b1:	8b 55 c4             	mov    -0x3c(%ebp),%edx
  4045b4:	8b 5f 0c             	mov    0xc(%edi),%ebx
  4045b7:	83 fb 0e             	cmp    $0xe,%ebx
  4045ba:	0f 86 26 01 00 00    	jbe    4046e6 <___pformat_xldouble+0x196>
  4045c0:	89 d1                	mov    %edx,%ecx
  4045c2:	09 c1                	or     %eax,%ecx
  4045c4:	0f 84 fc 04 00 00    	je     404ac6 <___pformat_xldouble+0x576>
  4045ca:	8d 4d d6             	lea    -0x2a(%ebp),%ecx
  4045cd:	89 4d a4             	mov    %ecx,-0x5c(%ebp)
  4045d0:	89 4d ac             	mov    %ecx,-0x54(%ebp)
  4045d3:	89 7d a8             	mov    %edi,-0x58(%ebp)
  4045d6:	eb 5e                	jmp    404636 <___pformat_xldouble+0xe6>
  4045d8:	8b 4d a8             	mov    -0x58(%ebp),%ecx
  4045db:	8b 49 0c             	mov    0xc(%ecx),%ecx
  4045de:	85 c9                	test   %ecx,%ecx
  4045e0:	7e 09                	jle    4045eb <___pformat_xldouble+0x9b>
  4045e2:	8b 5d a8             	mov    -0x58(%ebp),%ebx
  4045e5:	83 e9 01             	sub    $0x1,%ecx
  4045e8:	89 4b 0c             	mov    %ecx,0xc(%ebx)
  4045eb:	8b 4d ac             	mov    -0x54(%ebp),%ecx
  4045ee:	0f ac d0 04          	shrd   $0x4,%edx,%eax
  4045f2:	c1 ea 04             	shr    $0x4,%edx
  4045f5:	85 ff                	test   %edi,%edi
  4045f7:	89 4d b0             	mov    %ecx,-0x50(%ebp)
  4045fa:	0f 84 a8 00 00 00    	je     4046a8 <___pformat_xldouble+0x158>
  404600:	8b 4d b0             	mov    -0x50(%ebp),%ecx
  404603:	83 c1 01             	add    $0x1,%ecx
  404606:	83 ff 09             	cmp    $0x9,%edi
  404609:	89 4d ac             	mov    %ecx,-0x54(%ebp)
  40460c:	0f 8e b5 00 00 00    	jle    4046c7 <___pformat_xldouble+0x177>
  404612:	8d 4f 37             	lea    0x37(%edi),%ecx
  404615:	8b 7d a8             	mov    -0x58(%ebp),%edi
  404618:	8b 7f 04             	mov    0x4(%edi),%edi
  40461b:	89 7d a0             	mov    %edi,-0x60(%ebp)
  40461e:	0f b6 5d a0          	movzbl -0x60(%ebp),%ebx
  404622:	83 e3 20             	and    $0x20,%ebx
  404625:	09 d9                	or     %ebx,%ecx
  404627:	8b 7d b0             	mov    -0x50(%ebp),%edi
  40462a:	88 0f                	mov    %cl,(%edi)
  40462c:	89 d7                	mov    %edx,%edi
  40462e:	09 c7                	or     %eax,%edi
  404630:	0f 84 60 01 00 00    	je     404796 <___pformat_xldouble+0x246>
  404636:	89 c7                	mov    %eax,%edi
  404638:	89 c1                	mov    %eax,%ecx
  40463a:	83 e7 0f             	and    $0xf,%edi
  40463d:	89 fb                	mov    %edi,%ebx
  40463f:	31 f9                	xor    %edi,%ecx
  404641:	c1 fb 1f             	sar    $0x1f,%ebx
  404644:	31 d3                	xor    %edx,%ebx
  404646:	09 cb                	or     %ecx,%ebx
  404648:	75 8e                	jne    4045d8 <___pformat_xldouble+0x88>
  40464a:	8b 4d a4             	mov    -0x5c(%ebp),%ecx
  40464d:	39 4d ac             	cmp    %ecx,-0x54(%ebp)
  404650:	77 1e                	ja     404670 <___pformat_xldouble+0x120>
  404652:	8b 4d a8             	mov    -0x58(%ebp),%ecx
  404655:	f6 41 05 08          	testb  $0x8,0x5(%ecx)
  404659:	75 15                	jne    404670 <___pformat_xldouble+0x120>
  40465b:	8b 4d ac             	mov    -0x54(%ebp),%ecx
  40465e:	89 4d b0             	mov    %ecx,-0x50(%ebp)
  404661:	8b 4d a8             	mov    -0x58(%ebp),%ecx
  404664:	8b 59 0c             	mov    0xc(%ecx),%ebx
  404667:	85 db                	test   %ebx,%ebx
  404669:	7e 11                	jle    40467c <___pformat_xldouble+0x12c>
  40466b:	90                   	nop
  40466c:	8d 74 26 00          	lea    0x0(%esi,%eiz,1),%esi
  404670:	8b 4d ac             	mov    -0x54(%ebp),%ecx
  404673:	8d 59 01             	lea    0x1(%ecx),%ebx
  404676:	89 5d b0             	mov    %ebx,-0x50(%ebp)
  404679:	c6 01 2e             	movb   $0x2e,(%ecx)
  40467c:	89 c1                	mov    %eax,%ecx
  40467e:	83 f1 01             	xor    $0x1,%ecx
  404681:	09 d1                	or     %edx,%ecx
  404683:	74 17                	je     40469c <___pformat_xldouble+0x14c>
  404685:	8d 4e ff             	lea    -0x1(%esi),%ecx
  404688:	0f ac d0 01          	shrd   $0x1,%edx,%eax
  40468c:	89 ce                	mov    %ecx,%esi
  40468e:	89 c3                	mov    %eax,%ebx
  404690:	d1 ea                	shr    %edx
  404692:	83 f3 01             	xor    $0x1,%ebx
  404695:	09 d3                	or     %edx,%ebx
  404697:	8d 4e ff             	lea    -0x1(%esi),%ecx
  40469a:	75 ec                	jne    404688 <___pformat_xldouble+0x138>
  40469c:	31 c0                	xor    %eax,%eax
  40469e:	31 d2                	xor    %edx,%edx
  4046a0:	85 ff                	test   %edi,%edi
  4046a2:	0f 85 58 ff ff ff    	jne    404600 <___pformat_xldouble+0xb0>
  4046a8:	8b 4d a4             	mov    -0x5c(%ebp),%ecx
  4046ab:	39 4d b0             	cmp    %ecx,-0x50(%ebp)
  4046ae:	77 0e                	ja     4046be <___pformat_xldouble+0x16e>
  4046b0:	8b 4d a8             	mov    -0x58(%ebp),%ecx
  4046b3:	8b 49 0c             	mov    0xc(%ecx),%ecx
  4046b6:	85 c9                	test   %ecx,%ecx
  4046b8:	0f 88 b7 01 00 00    	js     404875 <___pformat_xldouble+0x325>
  4046be:	8b 4d b0             	mov    -0x50(%ebp),%ecx
  4046c1:	83 c1 01             	add    $0x1,%ecx
  4046c4:	89 4d ac             	mov    %ecx,-0x54(%ebp)
  4046c7:	8d 4f 30             	lea    0x30(%edi),%ecx
  4046ca:	e9 58 ff ff ff       	jmp    404627 <___pformat_xldouble+0xd7>
  4046cf:	90                   	nop
  4046d0:	81 4f 04 80 00 00 00 	orl    $0x80,0x4(%edi)
  4046d7:	e9 ac fe ff ff       	jmp    404588 <___pformat_xldouble+0x38>
  4046dc:	8d 74 26 00          	lea    0x0(%esi,%eiz,1),%esi
  4046e0:	0f a4 c2 01          	shld   $0x1,%eax,%edx
  4046e4:	01 c0                	add    %eax,%eax
  4046e6:	85 d2                	test   %edx,%edx
  4046e8:	79 f6                	jns    4046e0 <___pformat_xldouble+0x190>
  4046ea:	b9 0e 00 00 00       	mov    $0xe,%ecx
  4046ef:	0f ac d0 01          	shrd   $0x1,%edx,%eax
  4046f3:	29 d9                	sub    %ebx,%ecx
  4046f5:	d1 ea                	shr    %edx
  4046f7:	c1 e1 02             	shl    $0x2,%ecx
  4046fa:	89 45 b0             	mov    %eax,-0x50(%ebp)
  4046fd:	b8 04 00 00 00       	mov    $0x4,%eax
  404702:	89 55 b4             	mov    %edx,-0x4c(%ebp)
  404705:	31 d2                	xor    %edx,%edx
  404707:	0f a5 c2             	shld   %cl,%eax,%edx
  40470a:	d3 e0                	shl    %cl,%eax
  40470c:	f6 c1 20             	test   $0x20,%cl
  40470f:	74 04                	je     404715 <___pformat_xldouble+0x1c5>
  404711:	89 c2                	mov    %eax,%edx
  404713:	31 c0                	xor    %eax,%eax
  404715:	01 45 b0             	add    %eax,-0x50(%ebp)
  404718:	11 55 b4             	adc    %edx,-0x4c(%ebp)
  40471b:	8b 55 b4             	mov    -0x4c(%ebp),%edx
  40471e:	8b 45 b0             	mov    -0x50(%ebp),%eax
  404721:	85 d2                	test   %edx,%edx
  404723:	0f 88 64 03 00 00    	js     404a8d <___pformat_xldouble+0x53d>
  404729:	0f a4 c2 01          	shld   $0x1,%eax,%edx
  40472d:	01 c0                	add    %eax,%eax
  40472f:	89 45 b0             	mov    %eax,-0x50(%ebp)
  404732:	89 55 b4             	mov    %edx,-0x4c(%ebp)
  404735:	8b 55 b4             	mov    -0x4c(%ebp),%edx
  404738:	b9 0f 00 00 00       	mov    $0xf,%ecx
  40473d:	8b 45 b0             	mov    -0x50(%ebp),%eax
  404740:	29 d9                	sub    %ebx,%ecx
  404742:	c1 e1 02             	shl    $0x2,%ecx
  404745:	0f ad d0             	shrd   %cl,%edx,%eax
  404748:	d3 ea                	shr    %cl,%edx
  40474a:	f6 c1 20             	test   $0x20,%cl
  40474d:	0f 84 77 fe ff ff    	je     4045ca <___pformat_xldouble+0x7a>
  404753:	89 d0                	mov    %edx,%eax
  404755:	31 d2                	xor    %edx,%edx
  404757:	e9 6e fe ff ff       	jmp    4045ca <___pformat_xldouble+0x7a>
  40475c:	8d 74 26 00          	lea    0x0(%esi,%eiz,1),%esi
  404760:	8b 55 c4             	mov    -0x3c(%ebp),%edx
  404763:	8b 45 c0             	mov    -0x40(%ebp),%eax
  404766:	89 d6                	mov    %edx,%esi
  404768:	09 c6                	or     %eax,%esi
  40476a:	0f 84 d7 02 00 00    	je     404a47 <___pformat_xldouble+0x4f7>
  404770:	85 d2                	test   %edx,%edx
  404772:	0f 88 84 03 00 00    	js     404afc <___pformat_xldouble+0x5ac>
  404778:	b9 01 c0 ff ff       	mov    $0xffffc001,%ecx
  40477d:	8d 76 00             	lea    0x0(%esi),%esi
  404780:	0f a4 c2 01          	shld   $0x1,%eax,%edx
  404784:	89 cb                	mov    %ecx,%ebx
  404786:	01 c0                	add    %eax,%eax
  404788:	83 e9 01             	sub    $0x1,%ecx
  40478b:	85 d2                	test   %edx,%edx
  40478d:	79 f1                	jns    404780 <___pformat_xldouble+0x230>
  40478f:	89 de                	mov    %ebx,%esi
  404791:	e9 1e fe ff ff       	jmp    4045b4 <___pformat_xldouble+0x64>
  404796:	8b 45 a4             	mov    -0x5c(%ebp),%eax
  404799:	39 45 ac             	cmp    %eax,-0x54(%ebp)
  40479c:	8b 7d a8             	mov    -0x58(%ebp),%edi
  40479f:	0f 84 52 03 00 00    	je     404af7 <___pformat_xldouble+0x5a7>
  4047a5:	8b 47 04             	mov    0x4(%edi),%eax
  4047a8:	89 45 b0             	mov    %eax,-0x50(%ebp)
  4047ab:	8b 47 08             	mov    0x8(%edi),%eax
  4047ae:	85 c0                	test   %eax,%eax
  4047b0:	89 45 a0             	mov    %eax,-0x60(%ebp)
  4047b3:	0f 8e 7c 02 00 00    	jle    404a35 <___pformat_xldouble+0x4e5>
